   1               		.file	"timebase.c"
   2               	__SREG__ = 0x3f
   3               	__SP_H__ = 0x3e
   4               	__SP_L__ = 0x3d
   5               	__CCP__  = 0x34
   6               	__tmp_reg__ = 0
   7               	__zero_reg__ = 1
  15               	.Ltext0:
  16               	.global	Timebase_Struct_Init
  18               	Timebase_Struct_Init:
  19               	.LFB6:
  20               	.LM1:
  21               	/* prologue: function */
  22               	/* frame size = 0 */
  23               	.LM2:
  24 0000 80E0      		ldi r24,lo8(Timebase_type)
  25 0002 90E0      		ldi r25,hi8(Timebase_type)
  26 0004 9093 0000 		sts (Timebase)+1,r25
  27 0008 8093 0000 		sts Timebase,r24
  28               	.LM3:
  29 000c 1092 0000 		sts Timebase_type,__zero_reg__
  30               	.LM4:
  31 0010 8091 0000 		lds r24,Timebase_type
  32 0014 8460      		ori r24,lo8(4)
  33 0016 8093 0000 		sts Timebase_type,r24
  34               	.LM5:
  35 001a 8091 0000 		lds r24,Timebase_type
  36 001e 8770      		andi r24,lo8(7)
  37 0020 8093 0000 		sts Timebase_type,r24
  38               	.LM6:
  39 0024 81E0      		ldi r24,lo8(1)
  40 0026 90E0      		ldi r25,hi8(1)
  41 0028 9093 0000 		sts (Timebase_type+1)+1,r25
  42 002c 8093 0000 		sts Timebase_type+1,r24
  43               	.LM7:
  44 0030 1092 0000 		sts Timebase_type+7,__zero_reg__
  45 0034 1092 0000 		sts (Timebase_type+7)+1,__zero_reg__
  46 0038 1092 0000 		sts (Timebase_type+7)+2,__zero_reg__
  47 003c 1092 0000 		sts (Timebase_type+7)+3,__zero_reg__
  48               	.LM8:
  49 0040 1092 0000 		sts Timebase_type+11,__zero_reg__
  50 0044 1092 0000 		sts (Timebase_type+11)+1,__zero_reg__
  51 0048 1092 0000 		sts (Timebase_type+11)+2,__zero_reg__
  52 004c 1092 0000 		sts (Timebase_type+11)+3,__zero_reg__
  53               	.LM9:
  54 0050 1092 0000 		sts Timebase_type+3,__zero_reg__
  55 0054 1092 0000 		sts (Timebase_type+3)+1,__zero_reg__
  56 0058 1092 0000 		sts (Timebase_type+3)+2,__zero_reg__
  57 005c 1092 0000 		sts (Timebase_type+3)+3,__zero_reg__
  58               	.LM10:
  59 0060 1092 0000 		sts Timebase_type+15,__zero_reg__
  60               	.LBB261:
  61               	.LM11:
  62 0064 1092 0000 		sts Timebase_type+16,__zero_reg__
  63               	.LM12:
  64 0068 1092 0000 		sts Timebase_type+17,__zero_reg__
  65 006c 1092 0000 		sts (Timebase_type+17)+1,__zero_reg__
  66 0070 1092 0000 		sts (Timebase_type+17)+2,__zero_reg__
  67 0074 1092 0000 		sts (Timebase_type+17)+3,__zero_reg__
  68               	.LM13:
  69 0078 1092 0000 		sts Timebase_type+21,__zero_reg__
  70 007c 1092 0000 		sts (Timebase_type+21)+1,__zero_reg__
  71 0080 1092 0000 		sts (Timebase_type+21)+2,__zero_reg__
  72 0084 1092 0000 		sts (Timebase_type+21)+3,__zero_reg__
  73               	.LM14:
  74 0088 1092 0000 		sts Timebase_type+25,__zero_reg__
  75 008c 1092 0000 		sts (Timebase_type+25)+1,__zero_reg__
  76 0090 1092 0000 		sts (Timebase_type+25)+2,__zero_reg__
  77 0094 1092 0000 		sts (Timebase_type+25)+3,__zero_reg__
  78               	.LM15:
  79 0098 1092 0000 		sts Timebase_type+29,__zero_reg__
  80 009c 1092 0000 		sts (Timebase_type+29)+1,__zero_reg__
  81 00a0 1092 0000 		sts (Timebase_type+29)+2,__zero_reg__
  82 00a4 1092 0000 		sts (Timebase_type+29)+3,__zero_reg__
  83               	.LM16:
  84 00a8 1092 0000 		sts Timebase_type+33,__zero_reg__
  85 00ac 1092 0000 		sts (Timebase_type+33)+1,__zero_reg__
  86 00b0 1092 0000 		sts (Timebase_type+33)+2,__zero_reg__
  87 00b4 1092 0000 		sts (Timebase_type+33)+3,__zero_reg__
  88               	.LBE261:
  89               	.LBB262:
  90               	.LM17:
  91 00b8 1092 0000 		sts Timebase_type+37,__zero_reg__
  92               	.LM18:
  93 00bc 1092 0000 		sts Timebase_type+38,__zero_reg__
  94 00c0 1092 0000 		sts (Timebase_type+38)+1,__zero_reg__
  95 00c4 1092 0000 		sts (Timebase_type+38)+2,__zero_reg__
  96 00c8 1092 0000 		sts (Timebase_type+38)+3,__zero_reg__
  97               	.LM19:
  98 00cc 1092 0000 		sts Timebase_type+42,__zero_reg__
  99 00d0 1092 0000 		sts (Timebase_type+42)+1,__zero_reg__
 100 00d4 1092 0000 		sts (Timebase_type+42)+2,__zero_reg__
 101 00d8 1092 0000 		sts (Timebase_type+42)+3,__zero_reg__
 102               	.LM20:
 103 00dc 1092 0000 		sts Timebase_type+46,__zero_reg__
 104 00e0 1092 0000 		sts (Timebase_type+46)+1,__zero_reg__
 105 00e4 1092 0000 		sts (Timebase_type+46)+2,__zero_reg__
 106 00e8 1092 0000 		sts (Timebase_type+46)+3,__zero_reg__
 107               	.LBE262:
 108               	.LM21:
 109 00ec 1092 0000 		sts Timebase_type+50,__zero_reg__
 110               	/* epilogue start */
 111               	.LM22:
 112 00f0 0895      		ret
 113               	.LFE6:
 115               	.global	Timebase_Timer_Config
 117               	Timebase_Timer_Config:
 118               	.LFB7:
 119               	.LM23:
 120               	.LVL0:
 121               	/* prologue: function */
 122               	/* frame size = 0 */
 123 00f2 9C01      		movw r18,r24
 124               	.LM24:
 125 00f4 E091 0000 		lds r30,Timebase
 126 00f8 F091 0000 		lds r31,(Timebase)+1
 127 00fc 8081      		ld r24,Z
 128               	.LVL1:
 129 00fe 80FF      		sbrs r24,0
 130 0100 00C0      		rjmp .L4
 131               	.LBB263:
 132               	.LM25:
 133 0102 2130      		cpi r18,1
 134 0104 3105      		cpc r19,__zero_reg__
 135 0106 01F4      		brne .L5
 136 0108 96E0      		ldi r25,lo8(6)
 137               	.LVL2:
 138 010a 00C0      		rjmp .L6
 139               	.LVL3:
 140               	.L5:
 141               	.LM26:
 142 010c 2230      		cpi r18,2
 143 010e 3105      		cpc r19,__zero_reg__
 144 0110 01F4      		brne .L7
 145 0112 95E0      		ldi r25,lo8(5)
 146               	.LVL4:
 147 0114 00C0      		rjmp .L6
 148               	.LVL5:
 149               	.L7:
 150               	.LM27:
 151 0116 2430      		cpi r18,4
 152 0118 3105      		cpc r19,__zero_reg__
 153 011a 01F4      		brne .L8
 154 011c 94E0      		ldi r25,lo8(4)
 155               	.LVL6:
 156 011e 00C0      		rjmp .L6
 157               	.LVL7:
 158               	.L8:
 159               	.LM28:
 160 0120 2830      		cpi r18,8
 161 0122 3105      		cpc r19,__zero_reg__
 162 0124 01F4      		brne .L9
 163 0126 93E0      		ldi r25,lo8(3)
 164               	.LVL8:
 165 0128 00C0      		rjmp .L6
 166               	.LVL9:
 167               	.L9:
 168               	.LM29:
 169 012a 2031      		cpi r18,16
 170 012c 3105      		cpc r19,__zero_reg__
 171 012e 01F4      		brne .L10
 172 0130 92E0      		ldi r25,lo8(2)
 173               	.LVL10:
 174 0132 00C0      		rjmp .L6
 175               	.LVL11:
 176               	.L10:
 177 0134 90E0      		ldi r25,lo8(0)
 178               	.LVL12:
 179 0136 2032      		cpi r18,32
 180 0138 3105      		cpc r19,__zero_reg__
 181 013a 01F4      		brne .L6
 182 013c 91E0      		ldi r25,lo8(1)
 183               	.L6:
 184               	.LM30:
 185               	/* #APP */
 186               	 ;  146 "timebase.c" 1
 187 013e F894      		cli
 188               	 ;  0 "" 2
 189               	.LM31:
 190               	/* #NOAPP */
 191 0140 84B7      		in r24,84-32
 192 0142 877F      		andi r24,lo8(-9)
 193 0144 84BF      		out 84-32,r24
 194               	.LM32:
 195 0146 8091 6000 		lds r24,96
 196 014a 8068      		ori r24,lo8(-128)
 197 014c 8093 6000 		sts 96,r24
 198               	.LM33:
 199 0150 8091 6000 		lds r24,96
 200 0154 8861      		ori r24,lo8(24)
 201 0156 8093 6000 		sts 96,r24
 202               	.LM34:
 203 015a 9064      		ori r25,lo8(64)
 204 015c 9093 6000 		sts 96,r25
 205               	.LM35:
 206               	/* #APP */
 207               	 ;  151 "timebase.c" 1
 208 0160 7894      		sei
 209               	 ;  0 "" 2
 210               	/* #NOAPP */
 211 0162 00C0      		rjmp .L12
 212               	.LVL13:
 213               	.L4:
 214               	.LBE263:
 215               	.LM36:
 216 0164 81FD      		sbrc r24,1
 217 0166 00C0      		rjmp .L12
 218               	.LM37:
 219 0168 82FF      		sbrs r24,2
 220 016a 00C0      		rjmp .L12
 221               	.LM38:
 222 016c 14BC      		out 68-32,__zero_reg__
 223               	.LM39:
 224 016e 15BC      		out 69-32,__zero_reg__
 225               	.LM40:
 226 0170 1092 6E00 		sts 110,__zero_reg__
 227               	.LM41:
 228 0174 15BA      		out 53-32,__zero_reg__
 229               	.LM42:
 230 0176 17BC      		out 71-32,__zero_reg__
 231               	.LM43:
 232 0178 18BC      		out 72-32,__zero_reg__
 233               	.LM44:
 234 017a 16BC      		out 70-32,__zero_reg__
 235               	.LM45:
 236 017c 8AEF      		ldi r24,lo8(-6)
 237 017e 87BD      		out 71-32,r24
 238               	.LM46:
 239 0180 92E0      		ldi r25,lo8(2)
 240 0182 94BD      		out 68-32,r25
 241               	.LM47:
 242 0184 83E0      		ldi r24,lo8(3)
 243 0186 85BD      		out 69-32,r24
 244               	.LM48:
 245 0188 9093 6E00 		sts 110,r25
 246               	.LM49:
 247               	/* #APP */
 248               	 ;  166 "timebase.c" 1
 249 018c 7894      		sei
 250               	 ;  0 "" 2
 251               	.LVL14:
 252               	/* #NOAPP */
 253               	.L12:
 254               	.LM50:
 255 018e 3283      		std Z+2,r19
 256 0190 2183      		std Z+1,r18
 257               	/* epilogue start */
 258               	.LM51:
 259 0192 0895      		ret
 260               	.LFE7:
 262               	.global	Timebase_Token_Executing
 264               	Timebase_Token_Executing:
 265               	.LFB8:
 266               	.LM52:
 267               	/* prologue: function */
 268               	/* frame size = 0 */
 269               	.LM53:
 270 0194 E091 0000 		lds r30,Timebase
 271 0198 F091 0000 		lds r31,(Timebase)+1
 272 019c 8785      		ldd r24,Z+15
 273               	/* epilogue start */
 274               	.LM54:
 275 019e 0895      		ret
 276               	.LFE8:
 278               	.global	Timebase_Token_Add
 280               	Timebase_Token_Add:
 281               	.LFB9:
 282               	.LM55:
 283               	/* prologue: function */
 284               	/* frame size = 0 */
 285               	.LBB264:
 286               	.LBB265:
 287               	.LM56:
 288 01a0 E091 0000 		lds r30,Timebase
 289 01a4 F091 0000 		lds r31,(Timebase)+1
 290 01a8 8785      		ldd r24,Z+15
 291               	.LBE265:
 292               	.LBE264:
 293               	.LM57:
 294 01aa 8F33      		cpi r24,lo8(63)
 295 01ac 00F4      		brsh .L18
 296               	.LM58:
 297 01ae 8785      		ldd r24,Z+15
 298 01b0 8F5F      		subi r24,lo8(-(1))
 299 01b2 8787      		std Z+15,r24
 300               	.L18:
 301 01b4 0895      		ret
 302               	.LFE9:
 304               	.global	Timebase_Token_Remove
 306               	Timebase_Token_Remove:
 307               	.LFB10:
 308               	.LM59:
 309               	/* prologue: function */
 310               	/* frame size = 0 */
 311               	.LBB266:
 312               	.LBB267:
 313               	.LM60:
 314 01b6 E091 0000 		lds r30,Timebase
 315 01ba F091 0000 		lds r31,(Timebase)+1
 316 01be 8785      		ldd r24,Z+15
 317               	.LBE267:
 318               	.LBE266:
 319               	.LM61:
 320 01c0 8823      		tst r24
 321 01c2 01F0      		breq .L21
 322               	.LM62:
 323 01c4 8785      		ldd r24,Z+15
 324 01c6 8150      		subi r24,lo8(-(-1))
 325 01c8 8787      		std Z+15,r24
 326               	.L21:
 327 01ca 0895      		ret
 328               	.LFE10:
 330               	.global	Timebase_Token_Remove_All
 332               	Timebase_Token_Remove_All:
 333               	.LFB11:
 334               	.LM63:
 335               	/* prologue: function */
 336               	/* frame size = 0 */
 337               	.LM64:
 338 01cc E091 0000 		lds r30,Timebase
 339 01d0 F091 0000 		lds r31,(Timebase)+1
 340 01d4 1786      		std Z+15,__zero_reg__
 341               	/* epilogue start */
 342               	.LM65:
 343 01d6 0895      		ret
 344               	.LFE11:
 346               	.global	Timebase_Timer_Get_SubSeconds
 348               	Timebase_Timer_Get_SubSeconds:
 349               	.LFB12:
 350               	.LM66:
 351               	/* prologue: function */
 352               	/* frame size = 0 */
 353               	.LM67:
 354 01d8 E091 0000 		lds r30,Timebase
 355 01dc F091 0000 		lds r31,(Timebase)+1
 356 01e0 2781      		ldd r18,Z+7
 357 01e2 3085      		ldd r19,Z+8
 358 01e4 4185      		ldd r20,Z+9
 359 01e6 5285      		ldd r21,Z+10
 360               	.LM68:
 361 01e8 B901      		movw r22,r18
 362 01ea CA01      		movw r24,r20
 363               	/* epilogue start */
 364 01ec 0895      		ret
 365               	.LFE12:
 367               	.global	Timebase_Timer_Get_Seconds
 369               	Timebase_Timer_Get_Seconds:
 370               	.LFB13:
 371               	.LM69:
 372               	/* prologue: function */
 373               	/* frame size = 0 */
 374               	.LM70:
 375 01ee E091 0000 		lds r30,Timebase
 376 01f2 F091 0000 		lds r31,(Timebase)+1
 377 01f6 2385      		ldd r18,Z+11
 378 01f8 3485      		ldd r19,Z+12
 379 01fa 4585      		ldd r20,Z+13
 380 01fc 5685      		ldd r21,Z+14
 381               	.LM71:
 382 01fe B901      		movw r22,r18
 383 0200 CA01      		movw r24,r20
 384               	/* epilogue start */
 385 0202 0895      		ret
 386               	.LFE13:
 388               	.global	Timebase_Timer_Set_SubSeconds
 390               	Timebase_Timer_Set_SubSeconds:
 391               	.LFB14:
 392               	.LM72:
 393               	.LVL15:
 394               	/* prologue: function */
 395               	/* frame size = 0 */
 396               	.LM73:
 397 0204 E091 0000 		lds r30,Timebase
 398 0208 F091 0000 		lds r31,(Timebase)+1
 399 020c 6783      		std Z+7,r22
 400 020e 7087      		std Z+8,r23
 401 0210 8187      		std Z+9,r24
 402 0212 9287      		std Z+10,r25
 403               	/* epilogue start */
 404               	.LM74:
 405 0214 0895      		ret
 406               	.LFE14:
 408               	.global	Timebase_Timer_Set_Seconds
 410               	Timebase_Timer_Set_Seconds:
 411               	.LFB15:
 412               	.LM75:
 413               	.LVL16:
 414               	/* prologue: function */
 415               	/* frame size = 0 */
 416               	.LM76:
 417 0216 E091 0000 		lds r30,Timebase
 418 021a F091 0000 		lds r31,(Timebase)+1
 419 021e 6387      		std Z+11,r22
 420 0220 7487      		std Z+12,r23
 421 0222 8587      		std Z+13,r24
 422 0224 9687      		std Z+14,r25
 423               	/* epilogue start */
 424               	.LM77:
 425 0226 0895      		ret
 426               	.LFE15:
 428               	.global	Timebase_Timer_Delay_SubSeconds
 430               	Timebase_Timer_Delay_SubSeconds:
 431               	.LFB16:
 432               	.LM78:
 433               	.LVL17:
 434               	/* prologue: function */
 435               	/* frame size = 0 */
 436 0228 9C01      		movw r18,r24
 437               	.LBB268:
 438               	.LBB269:
 439               	.LBB270:
 440               	.LBB271:
 441               	.LM79:
 442 022a E091 0000 		lds r30,Timebase
 443 022e F091 0000 		lds r31,(Timebase)+1
 444 0232 8785      		ldd r24,Z+15
 445               	.LVL18:
 446               	.LBE271:
 447               	.LBE270:
 448               	.LM80:
 449 0234 8F33      		cpi r24,lo8(63)
 450 0236 00F4      		brsh .L33
 451               	.LM81:
 452 0238 8785      		ldd r24,Z+15
 453 023a 8F5F      		subi r24,lo8(-(1))
 454 023c 8787      		std Z+15,r24
 455               	.L33:
 456               	.LBE269:
 457               	.LBE268:
 458               	.LBB272:
 459               	.LBB273:
 460               	.LM82:
 461 023e 8781      		ldd r24,Z+7
 462 0240 9085      		ldd r25,Z+8
 463 0242 A185      		ldd r26,Z+9
 464 0244 B285      		ldd r27,Z+10
 465               	.LBE273:
 466               	.LBE272:
 467               	.LM83:
 468 0246 40E0      		ldi r20,lo8(0)
 469 0248 50E0      		ldi r21,hi8(0)
 470               	.LVL19:
 471 024a 280F      		add r18,r24
 472 024c 391F      		adc r19,r25
 473 024e 4A1F      		adc r20,r26
 474 0250 5B1F      		adc r21,r27
 475               	.LVL20:
 476               	.L34:
 477               	.LBB274:
 478               	.LBB275:
 479               	.LM84:
 480 0252 8781      		ldd r24,Z+7
 481 0254 9085      		ldd r25,Z+8
 482 0256 A185      		ldd r26,Z+9
 483 0258 B285      		ldd r27,Z+10
 484               	.LBE275:
 485               	.LBE274:
 486               	.LM85:
 487 025a 8217      		cp r24,r18
 488 025c 9307      		cpc r25,r19
 489 025e A407      		cpc r26,r20
 490 0260 B507      		cpc r27,r21
 491 0262 00F0      		brlo .L34
 492               	.LBB276:
 493               	.LBB277:
 494               	.LBB278:
 495               	.LBB279:
 496               	.LM86:
 497 0264 8785      		ldd r24,Z+15
 498               	.LBE279:
 499               	.LBE278:
 500               	.LM87:
 501 0266 8823      		tst r24
 502 0268 01F0      		breq .L36
 503               	.LM88:
 504 026a 8785      		ldd r24,Z+15
 505 026c 8150      		subi r24,lo8(-(-1))
 506 026e 8787      		std Z+15,r24
 507               	.L36:
 508 0270 0895      		ret
 509               	.LBE277:
 510               	.LBE276:
 511               	.LFE16:
 513               	.global	Timebase_Timer_Delay_Seconds
 515               	Timebase_Timer_Delay_Seconds:
 516               	.LFB17:
 517               	.LM89:
 518               	.LVL21:
 519 0272 EF92      		push r14
 520 0274 FF92      		push r15
 521 0276 0F93      		push r16
 522 0278 1F93      		push r17
 523               	/* prologue: function */
 524               	/* frame size = 0 */
 525               	.LBB280:
 526               	.LBB281:
 527               	.LM90:
 528 027a E091 0000 		lds r30,Timebase
 529 027e F091 0000 		lds r31,(Timebase)+1
 530 0282 2385      		ldd r18,Z+11
 531 0284 3485      		ldd r19,Z+12
 532 0286 4585      		ldd r20,Z+13
 533 0288 5685      		ldd r21,Z+14
 534               	.LBE281:
 535               	.LBE280:
 536               	.LM91:
 537 028a 7C01      		movw r14,r24
 538               	.LVL22:
 539 028c 00E0      		ldi r16,lo8(0)
 540 028e 10E0      		ldi r17,hi8(0)
 541               	.LVL23:
 542 0290 E20E      		add r14,r18
 543 0292 F31E      		adc r15,r19
 544 0294 041F      		adc r16,r20
 545 0296 151F      		adc r17,r21
 546               	.LVL24:
 547               	.L39:
 548               	.LBB282:
 549               	.LBB283:
 550               	.LM92:
 551 0298 8781      		ldd r24,Z+7
 552 029a 9085      		ldd r25,Z+8
 553 029c A185      		ldd r26,Z+9
 554 029e B285      		ldd r27,Z+10
 555               	.LVL25:
 556               	.LBE283:
 557               	.LBE282:
 558               	.LM93:
 559 02a0 8E15      		cp r24,r14
 560 02a2 9F05      		cpc r25,r15
 561 02a4 A007      		cpc r26,r16
 562 02a6 B107      		cpc r27,r17
 563 02a8 00F0      		brlo .L39
 564               	/* epilogue start */
 565               	.LM94:
 566 02aa 1F91      		pop r17
 567 02ac 0F91      		pop r16
 568               	.LVL26:
 569 02ae FF90      		pop r15
 570 02b0 EF90      		pop r14
 571               	.LVL27:
 572 02b2 0895      		ret
 573               	.LFE17:
 575               	.global	Timebase_UpCounter_Get_Status
 577               	Timebase_UpCounter_Get_Status:
 578               	.LFB18:
 579               	.LM95:
 580               	.LVL28:
 581               	/* prologue: function */
 582               	/* frame size = 0 */
 583               	.LM96:
 584 02b4 E091 0000 		lds r30,Timebase
 585 02b8 F091 0000 		lds r31,(Timebase)+1
 586 02bc 90E0      		ldi r25,lo8(0)
 587               	.LVL29:
 588 02be 25E1      		ldi r18,lo8(21)
 589 02c0 30E0      		ldi r19,hi8(21)
 590 02c2 AC01      		movw r20,r24
 591 02c4 429F      		mul r20,r18
 592 02c6 C001      		movw r24,r0
 593 02c8 439F      		mul r20,r19
 594 02ca 900D      		add r25,r0
 595 02cc 529F      		mul r21,r18
 596 02ce 900D      		add r25,r0
 597 02d0 1124      		clr r1
 598               	.LVL30:
 599 02d2 E80F      		add r30,r24
 600 02d4 F91F      		adc r31,r25
 601 02d6 8089      		ldd r24,Z+16
 602 02d8 8695      		lsr r24
 603               	.LM97:
 604 02da 8F70      		andi r24,lo8(15)
 605               	/* epilogue start */
 606 02dc 0895      		ret
 607               	.LFE18:
 609               	.global	Timebase_UpCounter_Set_Status
 611               	Timebase_UpCounter_Set_Status:
 612               	.LFB19:
 613               	.LM98:
 614               	.LVL31:
 615               	/* prologue: function */
 616               	/* frame size = 0 */
 617               	.LM99:
 618 02de E091 0000 		lds r30,Timebase
 619 02e2 F091 0000 		lds r31,(Timebase)+1
 620 02e6 90E0      		ldi r25,lo8(0)
 621               	.LVL32:
 622 02e8 25E1      		ldi r18,lo8(21)
 623 02ea 30E0      		ldi r19,hi8(21)
 624 02ec AC01      		movw r20,r24
 625 02ee 429F      		mul r20,r18
 626 02f0 C001      		movw r24,r0
 627 02f2 439F      		mul r20,r19
 628 02f4 900D      		add r25,r0
 629 02f6 529F      		mul r21,r18
 630 02f8 900D      		add r25,r0
 631 02fa 1124      		clr r1
 632               	.LVL33:
 633 02fc E80F      		add r30,r24
 634 02fe F91F      		adc r31,r25
 635 0300 6F70      		andi r22,lo8(15)
 636               	.LVL34:
 637 0302 660F      		lsl r22
 638 0304 8089      		ldd r24,Z+16
 639 0306 817E      		andi r24,lo8(-31)
 640 0308 862B      		or r24,r22
 641 030a 808B      		std Z+16,r24
 642               	/* epilogue start */
 643               	.LM100:
 644 030c 0895      		ret
 645               	.LFE19:
 647               	.global	Timebase_UpCounter_Get_Value
 649               	Timebase_UpCounter_Get_Value:
 650               	.LFB20:
 651               	.LM101:
 652               	.LVL35:
 653               	/* prologue: function */
 654               	/* frame size = 0 */
 655               	.LM102:
 656 030e E091 0000 		lds r30,Timebase
 657 0312 F091 0000 		lds r31,(Timebase)+1
 658 0316 90E0      		ldi r25,lo8(0)
 659               	.LVL36:
 660 0318 25E1      		ldi r18,lo8(21)
 661 031a 30E0      		ldi r19,hi8(21)
 662 031c AC01      		movw r20,r24
 663 031e 429F      		mul r20,r18
 664 0320 C001      		movw r24,r0
 665 0322 439F      		mul r20,r19
 666 0324 900D      		add r25,r0
 667 0326 529F      		mul r21,r18
 668 0328 900D      		add r25,r0
 669 032a 1124      		clr r1
 670               	.LVL37:
 671 032c E80F      		add r30,r24
 672 032e F91F      		adc r31,r25
 673 0330 DF01      		movw r26,r30
 674 0332 5D96      		adiw r26,29
 675 0334 658D      		ldd r22,Z+29
 676 0336 1196      		adiw r26,1
 677 0338 7C91      		ld r23,X
 678 033a 1197      		sbiw r26,1
 679               	.LM103:
 680 033c 1296      		adiw r26,2
 681 033e 8C91      		ld r24,X
 682 0340 1297      		sbiw r26,2
 683 0342 1396      		adiw r26,3
 684 0344 9C91      		ld r25,X
 685               	.LVL38:
 686               	/* epilogue start */
 687 0346 0895      		ret
 688               	.LFE20:
 690               	.global	Timebase_UpCounter_Set_Value
 692               	Timebase_UpCounter_Set_Value:
 693               	.LFB21:
 694               	.LM104:
 695               	.LVL39:
 696               	/* prologue: function */
 697               	/* frame size = 0 */
 698               	.LM105:
 699 0348 E091 0000 		lds r30,Timebase
 700 034c F091 0000 		lds r31,(Timebase)+1
 701 0350 90E0      		ldi r25,lo8(0)
 702               	.LVL40:
 703 0352 25E1      		ldi r18,lo8(21)
 704 0354 30E0      		ldi r19,hi8(21)
 705 0356 DC01      		movw r26,r24
 706 0358 A29F      		mul r26,r18
 707 035a C001      		movw r24,r0
 708 035c A39F      		mul r26,r19
 709 035e 900D      		add r25,r0
 710 0360 B29F      		mul r27,r18
 711 0362 900D      		add r25,r0
 712 0364 1124      		clr r1
 713               	.LVL41:
 714 0366 E80F      		add r30,r24
 715 0368 F91F      		adc r31,r25
 716 036a 458F      		std Z+29,r20
 717 036c 568F      		std Z+30,r21
 718 036e 678F      		std Z+31,r22
 719 0370 70A3      		std Z+32,r23
 720               	/* epilogue start */
 721               	.LM106:
 722 0372 0895      		ret
 723               	.LFE21:
 725               	.global	Timebase_UpCounter_Get_EndValue
 727               	Timebase_UpCounter_Get_EndValue:
 728               	.LFB22:
 729               	.LM107:
 730               	.LVL42:
 731               	/* prologue: function */
 732               	/* frame size = 0 */
 733               	.LM108:
 734 0374 E091 0000 		lds r30,Timebase
 735 0378 F091 0000 		lds r31,(Timebase)+1
 736 037c 90E0      		ldi r25,lo8(0)
 737               	.LVL43:
 738 037e 25E1      		ldi r18,lo8(21)
 739 0380 30E0      		ldi r19,hi8(21)
 740 0382 AC01      		movw r20,r24
 741 0384 429F      		mul r20,r18
 742 0386 C001      		movw r24,r0
 743 0388 439F      		mul r20,r19
 744 038a 900D      		add r25,r0
 745 038c 529F      		mul r21,r18
 746 038e 900D      		add r25,r0
 747 0390 1124      		clr r1
 748               	.LVL44:
 749 0392 E80F      		add r30,r24
 750 0394 F91F      		adc r31,r25
 751 0396 DF01      		movw r26,r30
 752 0398 5196      		adiw r26,17
 753 039a 6189      		ldd r22,Z+17
 754 039c 1196      		adiw r26,1
 755 039e 7C91      		ld r23,X
 756 03a0 1197      		sbiw r26,1
 757               	.LM109:
 758 03a2 1296      		adiw r26,2
 759 03a4 8C91      		ld r24,X
 760 03a6 1297      		sbiw r26,2
 761 03a8 1396      		adiw r26,3
 762 03aa 9C91      		ld r25,X
 763               	.LVL45:
 764               	/* epilogue start */
 765 03ac 0895      		ret
 766               	.LFE22:
 768               	.global	Timebase_UpCounter_Set_EndValue
 770               	Timebase_UpCounter_Set_EndValue:
 771               	.LFB23:
 772               	.LM110:
 773               	.LVL46:
 774               	/* prologue: function */
 775               	/* frame size = 0 */
 776               	.LM111:
 777 03ae E091 0000 		lds r30,Timebase
 778 03b2 F091 0000 		lds r31,(Timebase)+1
 779 03b6 90E0      		ldi r25,lo8(0)
 780               	.LVL47:
 781 03b8 25E1      		ldi r18,lo8(21)
 782 03ba 30E0      		ldi r19,hi8(21)
 783 03bc DC01      		movw r26,r24
 784 03be A29F      		mul r26,r18
 785 03c0 C001      		movw r24,r0
 786 03c2 A39F      		mul r26,r19
 787 03c4 900D      		add r25,r0
 788 03c6 B29F      		mul r27,r18
 789 03c8 900D      		add r25,r0
 790 03ca 1124      		clr r1
 791               	.LVL48:
 792 03cc E80F      		add r30,r24
 793 03ce F91F      		adc r31,r25
 794 03d0 418B      		std Z+17,r20
 795 03d2 528B      		std Z+18,r21
 796 03d4 638B      		std Z+19,r22
 797 03d6 748B      		std Z+20,r23
 798               	/* epilogue start */
 799               	.LM112:
 800 03d8 0895      		ret
 801               	.LFE23:
 803               	.global	Timebase_UpCounter_Get_TargetValue
 805               	Timebase_UpCounter_Get_TargetValue:
 806               	.LFB24:
 807               	.LM113:
 808               	.LVL49:
 809               	/* prologue: function */
 810               	/* frame size = 0 */
 811               	.LM114:
 812 03da E091 0000 		lds r30,Timebase
 813 03de F091 0000 		lds r31,(Timebase)+1
 814 03e2 90E0      		ldi r25,lo8(0)
 815               	.LVL50:
 816 03e4 0196      		adiw r24,1
 817               	.LVL51:
 818 03e6 25E1      		ldi r18,lo8(21)
 819 03e8 30E0      		ldi r19,hi8(21)
 820 03ea AC01      		movw r20,r24
 821 03ec 429F      		mul r20,r18
 822 03ee C001      		movw r24,r0
 823 03f0 439F      		mul r20,r19
 824 03f2 900D      		add r25,r0
 825 03f4 529F      		mul r21,r18
 826 03f6 900D      		add r25,r0
 827 03f8 1124      		clr r1
 828               	.LVL52:
 829 03fa E80F      		add r30,r24
 830 03fc F91F      		adc r31,r25
 831 03fe 6081      		ld r22,Z
 832 0400 7181      		ldd r23,Z+1
 833               	.LM115:
 834 0402 8281      		ldd r24,Z+2
 835 0404 9381      		ldd r25,Z+3
 836               	.LVL53:
 837               	/* epilogue start */
 838 0406 0895      		ret
 839               	.LFE24:
 841               	.global	Timebase_UpCounter_Set_TargetValue
 843               	Timebase_UpCounter_Set_TargetValue:
 844               	.LFB25:
 845               	.LM116:
 846               	.LVL54:
 847               	/* prologue: function */
 848               	/* frame size = 0 */
 849               	.LM117:
 850 0408 E091 0000 		lds r30,Timebase
 851 040c F091 0000 		lds r31,(Timebase)+1
 852 0410 90E0      		ldi r25,lo8(0)
 853               	.LVL55:
 854 0412 0196      		adiw r24,1
 855               	.LVL56:
 856 0414 25E1      		ldi r18,lo8(21)
 857 0416 30E0      		ldi r19,hi8(21)
 858 0418 DC01      		movw r26,r24
 859 041a A29F      		mul r26,r18
 860 041c C001      		movw r24,r0
 861 041e A39F      		mul r26,r19
 862 0420 900D      		add r25,r0
 863 0422 B29F      		mul r27,r18
 864 0424 900D      		add r25,r0
 865 0426 1124      		clr r1
 866               	.LVL57:
 867 0428 E80F      		add r30,r24
 868 042a F91F      		adc r31,r25
 869 042c 4083      		st Z,r20
 870 042e 5183      		std Z+1,r21
 871 0430 6283      		std Z+2,r22
 872 0432 7383      		std Z+3,r23
 873               	/* epilogue start */
 874               	.LM118:
 875 0434 0895      		ret
 876               	.LFE25:
 878               	.global	Timebase_UpCounter_Get_TemporaryValue
 880               	Timebase_UpCounter_Get_TemporaryValue:
 881               	.LFB26:
 882               	.LM119:
 883               	.LVL58:
 884               	/* prologue: function */
 885               	/* frame size = 0 */
 886               	.LM120:
 887 0436 E091 0000 		lds r30,Timebase
 888 043a F091 0000 		lds r31,(Timebase)+1
 889 043e 90E0      		ldi r25,lo8(0)
 890               	.LVL59:
 891 0440 25E1      		ldi r18,lo8(21)
 892 0442 30E0      		ldi r19,hi8(21)
 893 0444 AC01      		movw r20,r24
 894 0446 429F      		mul r20,r18
 895 0448 C001      		movw r24,r0
 896 044a 439F      		mul r20,r19
 897 044c 900D      		add r25,r0
 898 044e 529F      		mul r21,r18
 899 0450 900D      		add r25,r0
 900 0452 1124      		clr r1
 901               	.LVL60:
 902 0454 E80F      		add r30,r24
 903 0456 F91F      		adc r31,r25
 904 0458 DF01      		movw r26,r30
 905 045a 5996      		adiw r26,25
 906 045c 618D      		ldd r22,Z+25
 907 045e 1196      		adiw r26,1
 908 0460 7C91      		ld r23,X
 909 0462 1197      		sbiw r26,1
 910               	.LM121:
 911 0464 1296      		adiw r26,2
 912 0466 8C91      		ld r24,X
 913 0468 1297      		sbiw r26,2
 914 046a 1396      		adiw r26,3
 915 046c 9C91      		ld r25,X
 916               	.LVL61:
 917               	/* epilogue start */
 918 046e 0895      		ret
 919               	.LFE26:
 921               	.global	Timebase_UpCounter_Set_TemporaryValue
 923               	Timebase_UpCounter_Set_TemporaryValue:
 924               	.LFB27:
 925               	.LM122:
 926               	.LVL62:
 927               	/* prologue: function */
 928               	/* frame size = 0 */
 929               	.LM123:
 930 0470 E091 0000 		lds r30,Timebase
 931 0474 F091 0000 		lds r31,(Timebase)+1
 932 0478 90E0      		ldi r25,lo8(0)
 933               	.LVL63:
 934 047a 25E1      		ldi r18,lo8(21)
 935 047c 30E0      		ldi r19,hi8(21)
 936 047e DC01      		movw r26,r24
 937 0480 A29F      		mul r26,r18
 938 0482 C001      		movw r24,r0
 939 0484 A39F      		mul r26,r19
 940 0486 900D      		add r25,r0
 941 0488 B29F      		mul r27,r18
 942 048a 900D      		add r25,r0
 943 048c 1124      		clr r1
 944               	.LVL64:
 945 048e E80F      		add r30,r24
 946 0490 F91F      		adc r31,r25
 947 0492 418F      		std Z+25,r20
 948 0494 528F      		std Z+26,r21
 949 0496 638F      		std Z+27,r22
 950 0498 748F      		std Z+28,r23
 951               	/* epilogue start */
 952               	.LM124:
 953 049a 0895      		ret
 954               	.LFE27:
 956               	.global	Timebase_UpCounter_Get_PeriodValue
 958               	Timebase_UpCounter_Get_PeriodValue:
 959               	.LFB28:
 960               	.LM125:
 961               	.LVL65:
 962               	/* prologue: function */
 963               	/* frame size = 0 */
 964               	.LM126:
 965 049c E091 0000 		lds r30,Timebase
 966 04a0 F091 0000 		lds r31,(Timebase)+1
 967 04a4 90E0      		ldi r25,lo8(0)
 968               	.LVL66:
 969 04a6 25E1      		ldi r18,lo8(21)
 970 04a8 30E0      		ldi r19,hi8(21)
 971 04aa AC01      		movw r20,r24
 972 04ac 429F      		mul r20,r18
 973 04ae C001      		movw r24,r0
 974 04b0 439F      		mul r20,r19
 975 04b2 900D      		add r25,r0
 976 04b4 529F      		mul r21,r18
 977 04b6 900D      		add r25,r0
 978 04b8 1124      		clr r1
 979               	.LVL67:
 980 04ba E80F      		add r30,r24
 981 04bc F91F      		adc r31,r25
 982 04be DF01      		movw r26,r30
 983 04c0 9196      		adiw r26,33
 984 04c2 61A1      		ldd r22,Z+33
 985 04c4 1196      		adiw r26,1
 986 04c6 7C91      		ld r23,X
 987 04c8 1197      		sbiw r26,1
 988               	.LM127:
 989 04ca 1296      		adiw r26,2
 990 04cc 8C91      		ld r24,X
 991 04ce 1297      		sbiw r26,2
 992 04d0 1396      		adiw r26,3
 993 04d2 9C91      		ld r25,X
 994               	.LVL68:
 995               	/* epilogue start */
 996 04d4 0895      		ret
 997               	.LFE28:
 999               	.global	Timebase_UpCounter_Set_PeriodValue
 1001               	Timebase_UpCounter_Set_PeriodValue:
 1002               	.LFB29:
 1003               	.LM128:
 1004               	.LVL69:
 1005               	/* prologue: function */
 1006               	/* frame size = 0 */
 1007               	.LM129:
 1008 04d6 E091 0000 		lds r30,Timebase
 1009 04da F091 0000 		lds r31,(Timebase)+1
 1010 04de 90E0      		ldi r25,lo8(0)
 1011               	.LVL70:
 1012 04e0 25E1      		ldi r18,lo8(21)
 1013 04e2 30E0      		ldi r19,hi8(21)
 1014 04e4 DC01      		movw r26,r24
 1015 04e6 A29F      		mul r26,r18
 1016 04e8 C001      		movw r24,r0
 1017 04ea A39F      		mul r26,r19
 1018 04ec 900D      		add r25,r0
 1019 04ee B29F      		mul r27,r18
 1020 04f0 900D      		add r25,r0
 1021 04f2 1124      		clr r1
 1022               	.LVL71:
 1023 04f4 E80F      		add r30,r24
 1024 04f6 F91F      		adc r31,r25
 1025 04f8 41A3      		std Z+33,r20
 1026 04fa 52A3      		std Z+34,r21
 1027 04fc 63A3      		std Z+35,r22
 1028 04fe 74A3      		std Z+36,r23
 1029               	/* epilogue start */
 1030               	.LM130:
 1031 0500 0895      		ret
 1032               	.LFE29:
 1034               	.global	Timebase_UpCounter_Get_Period_Flag
 1036               	Timebase_UpCounter_Get_Period_Flag:
 1037               	.LFB30:
 1038               	.LM131:
 1039               	.LVL72:
 1040               	/* prologue: function */
 1041               	/* frame size = 0 */
 1042               	.LM132:
 1043 0502 E091 0000 		lds r30,Timebase
 1044 0506 F091 0000 		lds r31,(Timebase)+1
 1045 050a 90E0      		ldi r25,lo8(0)
 1046               	.LVL73:
 1047 050c 25E1      		ldi r18,lo8(21)
 1048 050e 30E0      		ldi r19,hi8(21)
 1049 0510 AC01      		movw r20,r24
 1050 0512 429F      		mul r20,r18
 1051 0514 C001      		movw r24,r0
 1052 0516 439F      		mul r20,r19
 1053 0518 900D      		add r25,r0
 1054 051a 529F      		mul r21,r18
 1055 051c 900D      		add r25,r0
 1056 051e 1124      		clr r1
 1057               	.LVL74:
 1058 0520 E80F      		add r30,r24
 1059 0522 F91F      		adc r31,r25
 1060 0524 8089      		ldd r24,Z+16
 1061               	.LM133:
 1062 0526 8170      		andi r24,lo8(1)
 1063               	/* epilogue start */
 1064 0528 0895      		ret
 1065               	.LFE30:
 1067               	.global	Timebase_UpCounter_Set_Period_Flag
 1069               	Timebase_UpCounter_Set_Period_Flag:
 1070               	.LFB31:
 1071               	.LM134:
 1072               	.LVL75:
 1073               	/* prologue: function */
 1074               	/* frame size = 0 */
 1075               	.LM135:
 1076 052a E091 0000 		lds r30,Timebase
 1077 052e F091 0000 		lds r31,(Timebase)+1
 1078 0532 90E0      		ldi r25,lo8(0)
 1079               	.LVL76:
 1080 0534 25E1      		ldi r18,lo8(21)
 1081 0536 30E0      		ldi r19,hi8(21)
 1082 0538 AC01      		movw r20,r24
 1083 053a 429F      		mul r20,r18
 1084 053c C001      		movw r24,r0
 1085 053e 439F      		mul r20,r19
 1086 0540 900D      		add r25,r0
 1087 0542 529F      		mul r21,r18
 1088 0544 900D      		add r25,r0
 1089 0546 1124      		clr r1
 1090               	.LVL77:
 1091 0548 E80F      		add r30,r24
 1092 054a F91F      		adc r31,r25
 1093 054c 8089      		ldd r24,Z+16
 1094 054e 8160      		ori r24,lo8(1)
 1095 0550 808B      		std Z+16,r24
 1096               	/* epilogue start */
 1097               	.LM136:
 1098 0552 0895      		ret
 1099               	.LFE31:
 1101               	.global	Timebase_UpCounter_Clear_Period_Flag
 1103               	Timebase_UpCounter_Clear_Period_Flag:
 1104               	.LFB32:
 1105               	.LM137:
 1106               	.LVL78:
 1107               	/* prologue: function */
 1108               	/* frame size = 0 */
 1109               	.LM138:
 1110 0554 E091 0000 		lds r30,Timebase
 1111 0558 F091 0000 		lds r31,(Timebase)+1
 1112 055c 90E0      		ldi r25,lo8(0)
 1113               	.LVL79:
 1114 055e 25E1      		ldi r18,lo8(21)
 1115 0560 30E0      		ldi r19,hi8(21)
 1116 0562 AC01      		movw r20,r24
 1117 0564 429F      		mul r20,r18
 1118 0566 C001      		movw r24,r0
 1119 0568 439F      		mul r20,r19
 1120 056a 900D      		add r25,r0
 1121 056c 529F      		mul r21,r18
 1122 056e 900D      		add r25,r0
 1123 0570 1124      		clr r1
 1124               	.LVL80:
 1125 0572 E80F      		add r30,r24
 1126 0574 F91F      		adc r31,r25
 1127 0576 8089      		ldd r24,Z+16
 1128 0578 8E7F      		andi r24,lo8(-2)
 1129 057a 808B      		std Z+16,r24
 1130               	/* epilogue start */
 1131               	.LM139:
 1132 057c 0895      		ret
 1133               	.LFE32:
 1135               	.global	Timebase_UpCounter_Reset
 1137               	Timebase_UpCounter_Reset:
 1138               	.LFB33:
 1139               	.LM140:
 1140               	.LVL81:
 1141               	/* prologue: function */
 1142               	/* frame size = 0 */
 1143               	.LBB284:
 1144               	.LBB285:
 1145               	.LM141:
 1146 057e A091 0000 		lds r26,Timebase
 1147 0582 B091 0000 		lds r27,(Timebase)+1
 1148 0586 90E0      		ldi r25,lo8(0)
 1149 0588 45E1      		ldi r20,lo8(21)
 1150 058a 50E0      		ldi r21,hi8(21)
 1151 058c 849F      		mul r24,r20
 1152 058e F001      		movw r30,r0
 1153 0590 859F      		mul r24,r21
 1154 0592 F00D      		add r31,r0
 1155 0594 949F      		mul r25,r20
 1156 0596 F00D      		add r31,r0
 1157 0598 1124      		clr r1
 1158               	.LVL82:
 1159 059a EA0F      		add r30,r26
 1160 059c FB1F      		adc r31,r27
 1161 059e 2089      		ldd r18,Z+16
 1162 05a0 217E      		andi r18,lo8(-31)
 1163 05a2 208B      		std Z+16,r18
 1164               	.LBE285:
 1165               	.LBE284:
 1166               	.LBB286:
 1167               	.LBB287:
 1168               	.LM142:
 1169 05a4 158E      		std Z+29,__zero_reg__
 1170 05a6 168E      		std Z+30,__zero_reg__
 1171 05a8 178E      		std Z+31,__zero_reg__
 1172 05aa 10A2      		std Z+32,__zero_reg__
 1173               	.LBE287:
 1174               	.LBE286:
 1175               	.LBB288:
 1176               	.LBB289:
 1177               	.LM143:
 1178 05ac 118A      		std Z+17,__zero_reg__
 1179 05ae 128A      		std Z+18,__zero_reg__
 1180 05b0 138A      		std Z+19,__zero_reg__
 1181 05b2 148A      		std Z+20,__zero_reg__
 1182               	.LBE289:
 1183               	.LBE288:
 1184               	.LBB290:
 1185               	.LBB291:
 1186               	.LM144:
 1187 05b4 0196      		adiw r24,1
 1188 05b6 9C01      		movw r18,r24
 1189 05b8 249F      		mul r18,r20
 1190 05ba C001      		movw r24,r0
 1191 05bc 259F      		mul r18,r21
 1192 05be 900D      		add r25,r0
 1193 05c0 349F      		mul r19,r20
 1194 05c2 900D      		add r25,r0
 1195 05c4 1124      		clr r1
 1196 05c6 A80F      		add r26,r24
 1197 05c8 B91F      		adc r27,r25
 1198 05ca 1D92      		st X+,__zero_reg__
 1199 05cc 1D92      		st X+,__zero_reg__
 1200 05ce 1D92      		st X+,__zero_reg__
 1201 05d0 1C92      		st X,__zero_reg__
 1202 05d2 1397      		sbiw r26,3
 1203               	.LBE291:
 1204               	.LBE290:
 1205               	.LBB292:
 1206               	.LBB293:
 1207               	.LM145:
 1208 05d4 118E      		std Z+25,__zero_reg__
 1209 05d6 128E      		std Z+26,__zero_reg__
 1210 05d8 138E      		std Z+27,__zero_reg__
 1211 05da 148E      		std Z+28,__zero_reg__
 1212               	.LBE293:
 1213               	.LBE292:
 1214               	.LBB294:
 1215               	.LBB295:
 1216               	.LM146:
 1217 05dc 11A2      		std Z+33,__zero_reg__
 1218 05de 12A2      		std Z+34,__zero_reg__
 1219 05e0 13A2      		std Z+35,__zero_reg__
 1220 05e2 14A2      		std Z+36,__zero_reg__
 1221               	.LBE295:
 1222               	.LBE294:
 1223               	.LBB296:
 1224               	.LBB297:
 1225               	.LM147:
 1226 05e4 8089      		ldd r24,Z+16
 1227 05e6 8E7F      		andi r24,lo8(-2)
 1228 05e8 808B      		std Z+16,r24
 1229               	/* epilogue start */
 1230               	.LBE297:
 1231               	.LBE296:
 1232               	.LM148:
 1233 05ea 0895      		ret
 1234               	.LFE33:
 1236               	.global	Timebase_UpCounter_Clear_All_Flags
 1238               	Timebase_UpCounter_Clear_All_Flags:
 1239               	.LFB34:
 1240               	.LM149:
 1241               	.LVL83:
 1242               	/* prologue: function */
 1243               	/* frame size = 0 */
 1244               	.LM150:
 1245 05ec 0E94 0000 		call Timebase_UpCounter_Reset
 1246               	.LVL84:
 1247               	/* epilogue start */
 1248               	.LM151:
 1249 05f0 0895      		ret
 1250               	.LFE34:
 1252               	.global	Timebase_UpCounter_Start
 1254               	Timebase_UpCounter_Start:
 1255               	.LFB35:
 1256               	.LM152:
 1257               	.LVL85:
 1258               	/* prologue: function */
 1259               	/* frame size = 0 */
 1260               	.LBB298:
 1261               	.LBB299:
 1262               	.LM153:
 1263 05f2 E091 0000 		lds r30,Timebase
 1264 05f6 F091 0000 		lds r31,(Timebase)+1
 1265 05fa 90E0      		ldi r25,lo8(0)
 1266               	.LBE299:
 1267               	.LBE298:
 1268               	.LM154:
 1269 05fc 25E1      		ldi r18,lo8(21)
 1270 05fe 30E0      		ldi r19,hi8(21)
 1271 0600 AC01      		movw r20,r24
 1272               	.LVL86:
 1273 0602 429F      		mul r20,r18
 1274 0604 C001      		movw r24,r0
 1275 0606 439F      		mul r20,r19
 1276 0608 900D      		add r25,r0
 1277 060a 529F      		mul r21,r18
 1278 060c 900D      		add r25,r0
 1279 060e 1124      		clr r1
 1280 0610 E80F      		add r30,r24
 1281 0612 F91F      		adc r31,r25
 1282 0614 9089      		ldd r25,Z+16
 1283 0616 892F      		mov r24,r25
 1284 0618 8695      		lsr r24
 1285 061a 8F70      		andi r24,lo8(15)
 1286 061c 8130      		cpi r24,lo8(1)
 1287 061e 01F0      		breq .L78
 1288               	.LBB300:
 1289               	.LBB301:
 1290               	.LM155:
 1291 0620 917E      		andi r25,lo8(-31)
 1292 0622 9260      		ori r25,lo8(2)
 1293 0624 908B      		std Z+16,r25
 1294               	.L78:
 1295 0626 0895      		ret
 1296               	.LBE301:
 1297               	.LBE300:
 1298               	.LFE35:
 1300               	.global	Timebase_UpCounter_Stop
 1302               	Timebase_UpCounter_Stop:
 1303               	.LFB36:
 1304               	.LM156:
 1305               	.LVL87:
 1306               	/* prologue: function */
 1307               	/* frame size = 0 */
 1308               	.LBB302:
 1309               	.LBB303:
 1310               	.LM157:
 1311 0628 E091 0000 		lds r30,Timebase
 1312 062c F091 0000 		lds r31,(Timebase)+1
 1313 0630 90E0      		ldi r25,lo8(0)
 1314               	.LBE303:
 1315               	.LBE302:
 1316               	.LM158:
 1317 0632 25E1      		ldi r18,lo8(21)
 1318 0634 30E0      		ldi r19,hi8(21)
 1319 0636 AC01      		movw r20,r24
 1320               	.LVL88:
 1321 0638 429F      		mul r20,r18
 1322 063a C001      		movw r24,r0
 1323 063c 439F      		mul r20,r19
 1324 063e 900D      		add r25,r0
 1325 0640 529F      		mul r21,r18
 1326 0642 900D      		add r25,r0
 1327 0644 1124      		clr r1
 1328 0646 E80F      		add r30,r24
 1329 0648 F91F      		adc r31,r25
 1330 064a 9089      		ldd r25,Z+16
 1331 064c 892F      		mov r24,r25
 1332 064e 8695      		lsr r24
 1333 0650 8F70      		andi r24,lo8(15)
 1334 0652 8230      		cpi r24,lo8(2)
 1335 0654 01F0      		breq .L81
 1336               	.LBB304:
 1337               	.LBB305:
 1338               	.LM159:
 1339 0656 917E      		andi r25,lo8(-31)
 1340 0658 9460      		ori r25,lo8(4)
 1341 065a 908B      		std Z+16,r25
 1342               	.L81:
 1343 065c 0895      		ret
 1344               	.LBE305:
 1345               	.LBE304:
 1346               	.LFE36:
 1348               	.global	Timebase_UpCounter_Set_Securely
 1350               	Timebase_UpCounter_Set_Securely:
 1351               	.LFB37:
 1352               	.LM160:
 1353               	.LVL89:
 1354 065e 0F93      		push r16
 1355 0660 1F93      		push r17
 1356 0662 CF93      		push r28
 1357 0664 DF93      		push r29
 1358               	/* prologue: function */
 1359               	/* frame size = 0 */
 1360               	.LBB306:
 1361               	.LBB307:
 1362               	.LM161:
 1363 0666 A091 0000 		lds r26,Timebase
 1364 066a B091 0000 		lds r27,(Timebase)+1
 1365 066e 282F      		mov r18,r24
 1366 0670 30E0      		ldi r19,lo8(0)
 1367               	.LBE307:
 1368               	.LBE306:
 1369               	.LM162:
 1370 0672 05E1      		ldi r16,lo8(21)
 1371 0674 10E0      		ldi r17,hi8(21)
 1372 0676 209F      		mul r18,r16
 1373 0678 E001      		movw r28,r0
 1374 067a 219F      		mul r18,r17
 1375 067c D00D      		add r29,r0
 1376 067e 309F      		mul r19,r16
 1377 0680 D00D      		add r29,r0
 1378 0682 1124      		clr r1
 1379 0684 CA0F      		add r28,r26
 1380 0686 DB1F      		adc r29,r27
 1381 0688 8889      		ldd r24,Y+16
 1382               	.LVL90:
 1383 068a 8695      		lsr r24
 1384 068c 8F70      		andi r24,lo8(15)
 1385 068e 01F4      		brne .L84
 1386               	.LBB308:
 1387               	.LBB309:
 1388               	.LM163:
 1389 0690 1D8E      		std Y+29,__zero_reg__
 1390 0692 1E8E      		std Y+30,__zero_reg__
 1391 0694 1F8E      		std Y+31,__zero_reg__
 1392 0696 18A2      		std Y+32,__zero_reg__
 1393               	.LBE309:
 1394               	.LBE308:
 1395               	.LBB310:
 1396               	.LBB311:
 1397               	.LM164:
 1398 0698 198E      		std Y+25,__zero_reg__
 1399 069a 1A8E      		std Y+26,__zero_reg__
 1400 069c 1B8E      		std Y+27,__zero_reg__
 1401 069e 1C8E      		std Y+28,__zero_reg__
 1402               	.LBE311:
 1403               	.LBE310:
 1404               	.LBB312:
 1405               	.LBB313:
 1406               	.LM165:
 1407 06a0 2F5F      		subi r18,lo8(-(1))
 1408 06a2 3F4F      		sbci r19,hi8(-(1))
 1409 06a4 209F      		mul r18,r16
 1410 06a6 F001      		movw r30,r0
 1411 06a8 219F      		mul r18,r17
 1412 06aa F00D      		add r31,r0
 1413 06ac 309F      		mul r19,r16
 1414 06ae F00D      		add r31,r0
 1415 06b0 1124      		clr r1
 1416 06b2 EA0F      		add r30,r26
 1417 06b4 FB1F      		adc r31,r27
 1418 06b6 4083      		st Z,r20
 1419 06b8 5183      		std Z+1,r21
 1420 06ba 6283      		std Z+2,r22
 1421 06bc 7383      		std Z+3,r23
 1422               	.LBE313:
 1423               	.LBE312:
 1424               	.LBB314:
 1425               	.LBB315:
 1426               	.LM166:
 1427 06be 1B96      		adiw r26,11
 1428 06c0 8D91      		ld r24,X+
 1429 06c2 9D91      		ld r25,X+
 1430 06c4 0D90      		ld __tmp_reg__,X+
 1431 06c6 BC91      		ld r27,X
 1432 06c8 A02D      		mov r26,__tmp_reg__
 1433               	.LBE315:
 1434               	.LBE314:
 1435               	.LBB316:
 1436               	.LBB317:
 1437               	.LM167:
 1438 06ca 840F      		add r24,r20
 1439 06cc 951F      		adc r25,r21
 1440 06ce A61F      		adc r26,r22
 1441 06d0 B71F      		adc r27,r23
 1442 06d2 898B      		std Y+17,r24
 1443 06d4 9A8B      		std Y+18,r25
 1444 06d6 AB8B      		std Y+19,r26
 1445 06d8 BC8B      		std Y+20,r27
 1446               	.LBE317:
 1447               	.LBE316:
 1448               	.LBB318:
 1449               	.LBB319:
 1450               	.LM168:
 1451 06da 9889      		ldd r25,Y+16
 1452 06dc 892F      		mov r24,r25
 1453 06de 8695      		lsr r24
 1454 06e0 8F70      		andi r24,lo8(15)
 1455 06e2 8130      		cpi r24,lo8(1)
 1456 06e4 01F0      		breq .L84
 1457               	.LBB320:
 1458               	.LBB321:
 1459               	.LM169:
 1460 06e6 917E      		andi r25,lo8(-31)
 1461 06e8 9260      		ori r25,lo8(2)
 1462 06ea 988B      		std Y+16,r25
 1463               	.L84:
 1464               	/* epilogue start */
 1465               	.LBE321:
 1466               	.LBE320:
 1467               	.LBE319:
 1468               	.LBE318:
 1469               	.LM170:
 1470 06ec DF91      		pop r29
 1471 06ee CF91      		pop r28
 1472 06f0 1F91      		pop r17
 1473 06f2 0F91      		pop r16
 1474 06f4 0895      		ret
 1475               	.LFE37:
 1477               	.global	Timebase_UpCounter_Set_Forcefully
 1479               	Timebase_UpCounter_Set_Forcefully:
 1480               	.LFB38:
 1481               	.LM171:
 1482               	.LVL91:
 1483 06f6 DF92      		push r13
 1484 06f8 EF92      		push r14
 1485 06fa FF92      		push r15
 1486 06fc 0F93      		push r16
 1487 06fe 1F93      		push r17
 1488               	/* prologue: function */
 1489               	/* frame size = 0 */
 1490 0700 D82E      		mov r13,r24
 1491 0702 7A01      		movw r14,r20
 1492 0704 8B01      		movw r16,r22
 1493               	.LM172:
 1494 0706 0E94 0000 		call Timebase_UpCounter_Reset
 1495               	.LVL92:
 1496               	.LM173:
 1497 070a 8D2D      		mov r24,r13
 1498 070c B801      		movw r22,r16
 1499 070e A701      		movw r20,r14
 1500 0710 0E94 0000 		call Timebase_UpCounter_Set_Securely
 1501               	/* epilogue start */
 1502               	.LM174:
 1503 0714 1F91      		pop r17
 1504 0716 0F91      		pop r16
 1505 0718 FF90      		pop r15
 1506 071a EF90      		pop r14
 1507               	.LVL93:
 1508 071c DF90      		pop r13
 1509               	.LVL94:
 1510 071e 0895      		ret
 1511               	.LFE38:
 1513               	.global	Timebase_UpCounter_Update
 1515               	Timebase_UpCounter_Update:
 1516               	.LFB39:
 1517               	.LM175:
 1518               	.LVL95:
 1519 0720 EF92      		push r14
 1520 0722 FF92      		push r15
 1521 0724 0F93      		push r16
 1522 0726 1F93      		push r17
 1523 0728 CF93      		push r28
 1524 072a DF93      		push r29
 1525               	/* prologue: function */
 1526               	/* frame size = 0 */
 1527               	.LBB322:
 1528               	.LBB323:
 1529               	.LM176:
 1530 072c C091 0000 		lds r28,Timebase
 1531 0730 D091 0000 		lds r29,(Timebase)+1
 1532 0734 682F      		mov r22,r24
 1533 0736 70E0      		ldi r23,lo8(0)
 1534 0738 05E1      		ldi r16,lo8(21)
 1535 073a 10E0      		ldi r17,hi8(21)
 1536 073c 609F      		mul r22,r16
 1537 073e F001      		movw r30,r0
 1538 0740 619F      		mul r22,r17
 1539 0742 F00D      		add r31,r0
 1540 0744 709F      		mul r23,r16
 1541 0746 F00D      		add r31,r0
 1542 0748 1124      		clr r1
 1543 074a EC0F      		add r30,r28
 1544 074c FD1F      		adc r31,r29
 1545 074e 8089      		ldd r24,Z+16
 1546               	.LVL96:
 1547 0750 8695      		lsr r24
 1548 0752 8F70      		andi r24,lo8(15)
 1549               	.LBE323:
 1550               	.LBE322:
 1551               	.LM177:
 1552 0754 8130      		cpi r24,lo8(1)
 1553 0756 01F0      		breq .+2
 1554 0758 00C0      		rjmp .L88
 1555               	.LBB324:
 1556               	.LBB325:
 1557               	.LM178:
 1558 075a 8B85      		ldd r24,Y+11
 1559 075c 9C85      		ldd r25,Y+12
 1560 075e AD85      		ldd r26,Y+13
 1561 0760 BE85      		ldd r27,Y+14
 1562               	.LBE325:
 1563               	.LBE324:
 1564               	.LM179:
 1565 0762 2189      		ldd r18,Z+17
 1566 0764 3289      		ldd r19,Z+18
 1567 0766 4389      		ldd r20,Z+19
 1568 0768 5489      		ldd r21,Z+20
 1569 076a 281B      		sub r18,r24
 1570 076c 390B      		sbc r19,r25
 1571 076e 4A0B      		sbc r20,r26
 1572 0770 5B0B      		sbc r21,r27
 1573               	.LBB326:
 1574               	.LBB327:
 1575               	.LM180:
 1576 0772 218F      		std Z+25,r18
 1577 0774 328F      		std Z+26,r19
 1578 0776 438F      		std Z+27,r20
 1579 0778 548F      		std Z+28,r21
 1580               	.LBE327:
 1581               	.LBE326:
 1582               	.LBB328:
 1583               	.LBB329:
 1584               	.LM181:
 1585 077a 6F5F      		subi r22,lo8(-(1))
 1586 077c 7F4F      		sbci r23,hi8(-(1))
 1587 077e 609F      		mul r22,r16
 1588 0780 C001      		movw r24,r0
 1589 0782 619F      		mul r22,r17
 1590 0784 900D      		add r25,r0
 1591 0786 709F      		mul r23,r16
 1592 0788 900D      		add r25,r0
 1593 078a 1124      		clr r1
 1594 078c C80F      		add r28,r24
 1595 078e D91F      		adc r29,r25
 1596 0790 E880      		ld r14,Y
 1597 0792 F980      		ldd r15,Y+1
 1598 0794 0A81      		ldd r16,Y+2
 1599 0796 1B81      		ldd r17,Y+3
 1600 0798 D801      		movw r26,r16
 1601 079a C701      		movw r24,r14
 1602 079c 821B      		sub r24,r18
 1603 079e 930B      		sbc r25,r19
 1604 07a0 A40B      		sbc r26,r20
 1605 07a2 B50B      		sbc r27,r21
 1606 07a4 858F      		std Z+29,r24
 1607 07a6 968F      		std Z+30,r25
 1608 07a8 A78F      		std Z+31,r26
 1609 07aa B0A3      		std Z+32,r27
 1610               	.LBE329:
 1611               	.LBE328:
 1612               	.LM182:
 1613 07ac 2115      		cp r18,__zero_reg__
 1614 07ae 3105      		cpc r19,__zero_reg__
 1615 07b0 4105      		cpc r20,__zero_reg__
 1616 07b2 5105      		cpc r21,__zero_reg__
 1617 07b4 01F4      		brne .L90
 1618               	.LBB330:
 1619               	.LBB331:
 1620               	.LM183:
 1621 07b6 118A      		std Z+17,__zero_reg__
 1622 07b8 128A      		std Z+18,__zero_reg__
 1623 07ba 138A      		std Z+19,__zero_reg__
 1624 07bc 148A      		std Z+20,__zero_reg__
 1625               	.LBE331:
 1626               	.LBE330:
 1627               	.LBB332:
 1628               	.LBB333:
 1629               	.LM184:
 1630 07be 118E      		std Z+25,__zero_reg__
 1631 07c0 128E      		std Z+26,__zero_reg__
 1632 07c2 138E      		std Z+27,__zero_reg__
 1633 07c4 148E      		std Z+28,__zero_reg__
 1634               	.LBE333:
 1635               	.LBE332:
 1636               	.LBB334:
 1637               	.LBB335:
 1638               	.LM185:
 1639 07c6 E58E      		std Z+29,r14
 1640 07c8 F68E      		std Z+30,r15
 1641 07ca 078F      		std Z+31,r16
 1642 07cc 10A3      		std Z+32,r17
 1643               	.LBE335:
 1644               	.LBE334:
 1645               	.LBB336:
 1646               	.LBB337:
 1647               	.LM186:
 1648 07ce 8089      		ldd r24,Z+16
 1649 07d0 817E      		andi r24,lo8(-31)
 1650 07d2 8860      		ori r24,lo8(8)
 1651 07d4 808B      		std Z+16,r24
 1652 07d6 00C0      		rjmp .L90
 1653               	.L88:
 1654               	.LBE337:
 1655               	.LBE336:
 1656               	.LM187:
 1657 07d8 8230      		cpi r24,lo8(2)
 1658 07da 01F4      		brne .L90
 1659               	.LBB338:
 1660               	.LBB339:
 1661               	.LM188:
 1662 07dc 8B85      		ldd r24,Y+11
 1663 07de 9C85      		ldd r25,Y+12
 1664 07e0 AD85      		ldd r26,Y+13
 1665 07e2 BE85      		ldd r27,Y+14
 1666               	.LBE339:
 1667               	.LBE338:
 1668               	.LBB340:
 1669               	.LBB341:
 1670               	.LM189:
 1671 07e4 218D      		ldd r18,Z+25
 1672 07e6 328D      		ldd r19,Z+26
 1673 07e8 438D      		ldd r20,Z+27
 1674 07ea 548D      		ldd r21,Z+28
 1675 07ec 820F      		add r24,r18
 1676 07ee 931F      		adc r25,r19
 1677 07f0 A41F      		adc r26,r20
 1678 07f2 B51F      		adc r27,r21
 1679 07f4 818B      		std Z+17,r24
 1680 07f6 928B      		std Z+18,r25
 1681 07f8 A38B      		std Z+19,r26
 1682 07fa B48B      		std Z+20,r27
 1683               	.LBE341:
 1684               	.LBE340:
 1685               	.LBB342:
 1686               	.LBB343:
 1687               	.LM190:
 1688 07fc 6F5F      		subi r22,lo8(-(1))
 1689 07fe 7F4F      		sbci r23,hi8(-(1))
 1690 0800 609F      		mul r22,r16
 1691 0802 C001      		movw r24,r0
 1692 0804 619F      		mul r22,r17
 1693 0806 900D      		add r25,r0
 1694 0808 709F      		mul r23,r16
 1695 080a 900D      		add r25,r0
 1696 080c 1124      		clr r1
 1697 080e C80F      		add r28,r24
 1698 0810 D91F      		adc r29,r25
 1699 0812 8881      		ld r24,Y
 1700 0814 9981      		ldd r25,Y+1
 1701 0816 AA81      		ldd r26,Y+2
 1702 0818 BB81      		ldd r27,Y+3
 1703 081a 821B      		sub r24,r18
 1704 081c 930B      		sbc r25,r19
 1705 081e A40B      		sbc r26,r20
 1706 0820 B50B      		sbc r27,r21
 1707 0822 858F      		std Z+29,r24
 1708 0824 968F      		std Z+30,r25
 1709 0826 A78F      		std Z+31,r26
 1710 0828 B0A3      		std Z+32,r27
 1711               	.L90:
 1712               	/* epilogue start */
 1713               	.LBE343:
 1714               	.LBE342:
 1715               	.LM191:
 1716 082a DF91      		pop r29
 1717 082c CF91      		pop r28
 1718 082e 1F91      		pop r17
 1719 0830 0F91      		pop r16
 1720 0832 FF90      		pop r15
 1721 0834 EF90      		pop r14
 1722 0836 0895      		ret
 1723               	.LFE39:
 1725               	.global	Timebase_UpCounter_Expired
 1727               	Timebase_UpCounter_Expired:
 1728               	.LFB40:
 1729               	.LM192:
 1730               	.LVL97:
 1731               	/* prologue: function */
 1732               	/* frame size = 0 */
 1733               	.LM193:
 1734 0838 40E0      		ldi r20,lo8(0)
 1735 083a E091 0000 		lds r30,Timebase
 1736 083e F091 0000 		lds r31,(Timebase)+1
 1737 0842 90E0      		ldi r25,lo8(0)
 1738               	.LVL98:
 1739 0844 25E1      		ldi r18,lo8(21)
 1740 0846 30E0      		ldi r19,hi8(21)
 1741 0848 BC01      		movw r22,r24
 1742 084a 629F      		mul r22,r18
 1743 084c C001      		movw r24,r0
 1744 084e 639F      		mul r22,r19
 1745 0850 900D      		add r25,r0
 1746 0852 729F      		mul r23,r18
 1747 0854 900D      		add r25,r0
 1748 0856 1124      		clr r1
 1749               	.LVL99:
 1750 0858 E80F      		add r30,r24
 1751 085a F91F      		adc r31,r25
 1752 085c 8089      		ldd r24,Z+16
 1753 085e 8695      		lsr r24
 1754 0860 8F70      		andi r24,lo8(15)
 1755 0862 8430      		cpi r24,lo8(4)
 1756 0864 01F4      		brne .L92
 1757 0866 41E0      		ldi r20,lo8(1)
 1758               	.L92:
 1759               	.LM194:
 1760 0868 842F      		mov r24,r20
 1761               	/* epilogue start */
 1762 086a 0895      		ret
 1763               	.LFE40:
 1765               	.global	Timebase_UpCounter_Expired_Event
 1767               	Timebase_UpCounter_Expired_Event:
 1768               	.LFB41:
 1769               	.LM195:
 1770               	.LVL100:
 1771               	/* prologue: function */
 1772               	/* frame size = 0 */
 1773 086c 482F      		mov r20,r24
 1774               	.LM196:
 1775 086e E091 0000 		lds r30,Timebase
 1776 0872 F091 0000 		lds r31,(Timebase)+1
 1777 0876 282F      		mov r18,r24
 1778 0878 30E0      		ldi r19,lo8(0)
 1779               	.LVL101:
 1780 087a 85E1      		ldi r24,lo8(21)
 1781 087c 90E0      		ldi r25,hi8(21)
 1782               	.LVL102:
 1783 087e BC01      		movw r22,r24
 1784 0880 269F      		mul r18,r22
 1785 0882 C001      		movw r24,r0
 1786 0884 279F      		mul r18,r23
 1787 0886 900D      		add r25,r0
 1788 0888 369F      		mul r19,r22
 1789 088a 900D      		add r25,r0
 1790 088c 1124      		clr r1
 1791 088e E80F      		add r30,r24
 1792 0890 F91F      		adc r31,r25
 1793 0892 8089      		ldd r24,Z+16
 1794 0894 8695      		lsr r24
 1795 0896 8F70      		andi r24,lo8(15)
 1796 0898 8430      		cpi r24,lo8(4)
 1797 089a 01F0      		breq .L95
 1798 089c 80E0      		ldi r24,lo8(0)
 1799 089e 0895      		ret
 1800               	.L95:
 1801               	.LBB344:
 1802               	.LBB345:
 1803               	.LM197:
 1804 08a0 842F      		mov r24,r20
 1805 08a2 0E94 0000 		call Timebase_UpCounter_Reset
 1806               	.LVL103:
 1807 08a6 81E0      		ldi r24,lo8(1)
 1808               	.LBE345:
 1809               	.LBE344:
 1810               	.LM198:
 1811 08a8 0895      		ret
 1812               	.LFE41:
 1814               	.global	Timebase_UpCounter_Set_Period_Value_Securely
 1816               	Timebase_UpCounter_Set_Period_Value_Securely:
 1817               	.LFB42:
 1818               	.LM199:
 1819               	.LVL104:
 1820               	/* prologue: function */
 1821               	/* frame size = 0 */
 1822               	.LBB346:
 1823               	.LBB347:
 1824               	.LM200:
 1825 08aa E091 0000 		lds r30,Timebase
 1826 08ae F091 0000 		lds r31,(Timebase)+1
 1827 08b2 90E0      		ldi r25,lo8(0)
 1828               	.LBE347:
 1829               	.LBE346:
 1830               	.LM201:
 1831 08b4 25E1      		ldi r18,lo8(21)
 1832 08b6 30E0      		ldi r19,hi8(21)
 1833 08b8 DC01      		movw r26,r24
 1834               	.LVL105:
 1835 08ba A29F      		mul r26,r18
 1836 08bc C001      		movw r24,r0
 1837 08be A39F      		mul r26,r19
 1838 08c0 900D      		add r25,r0
 1839 08c2 B29F      		mul r27,r18
 1840 08c4 900D      		add r25,r0
 1841 08c6 1124      		clr r1
 1842 08c8 E80F      		add r30,r24
 1843 08ca F91F      		adc r31,r25
 1844 08cc 8089      		ldd r24,Z+16
 1845 08ce 80FD      		sbrc r24,0
 1846 08d0 00C0      		rjmp .L100
 1847               	.LBB348:
 1848               	.LBB349:
 1849               	.LM202:
 1850 08d2 858D      		ldd r24,Z+29
 1851 08d4 968D      		ldd r25,Z+30
 1852 08d6 A78D      		ldd r26,Z+31
 1853 08d8 B0A1      		ldd r27,Z+32
 1854 08da 840F      		add r24,r20
 1855 08dc 951F      		adc r25,r21
 1856 08de A61F      		adc r26,r22
 1857 08e0 B71F      		adc r27,r23
 1858 08e2 81A3      		std Z+33,r24
 1859 08e4 92A3      		std Z+34,r25
 1860 08e6 A3A3      		std Z+35,r26
 1861 08e8 B4A3      		std Z+36,r27
 1862               	.LBE349:
 1863               	.LBE348:
 1864               	.LBB350:
 1865               	.LBB351:
 1866               	.LM203:
 1867 08ea 8089      		ldd r24,Z+16
 1868 08ec 8160      		ori r24,lo8(1)
 1869 08ee 808B      		std Z+16,r24
 1870               	.L100:
 1871 08f0 0895      		ret
 1872               	.LBE351:
 1873               	.LBE350:
 1874               	.LFE42:
 1876               	.global	Timebase_UpCounter_Get_Remaining_Period_Value
 1878               	Timebase_UpCounter_Get_Remaining_Period_Value:
 1879               	.LFB43:
 1880               	.LM204:
 1881               	.LVL106:
 1882               	/* prologue: function */
 1883               	/* frame size = 0 */
 1884               	.LBB352:
 1885               	.LBB353:
 1886               	.LM205:
 1887 08f2 E091 0000 		lds r30,Timebase
 1888 08f6 F091 0000 		lds r31,(Timebase)+1
 1889 08fa 90E0      		ldi r25,lo8(0)
 1890               	.LBE353:
 1891               	.LBE352:
 1892               	.LM206:
 1893 08fc 25E1      		ldi r18,lo8(21)
 1894 08fe 30E0      		ldi r19,hi8(21)
 1895 0900 AC01      		movw r20,r24
 1896               	.LVL107:
 1897 0902 429F      		mul r20,r18
 1898 0904 C001      		movw r24,r0
 1899 0906 439F      		mul r20,r19
 1900 0908 900D      		add r25,r0
 1901 090a 529F      		mul r21,r18
 1902 090c 900D      		add r25,r0
 1903 090e 1124      		clr r1
 1904 0910 E80F      		add r30,r24
 1905 0912 F91F      		adc r31,r25
 1906 0914 21A1      		ldd r18,Z+33
 1907 0916 32A1      		ldd r19,Z+34
 1908 0918 43A1      		ldd r20,Z+35
 1909 091a 54A1      		ldd r21,Z+36
 1910               	.LVL108:
 1911 091c 858D      		ldd r24,Z+29
 1912 091e 968D      		ldd r25,Z+30
 1913 0920 A78D      		ldd r26,Z+31
 1914 0922 B0A1      		ldd r27,Z+32
 1915 0924 281B      		sub r18,r24
 1916 0926 390B      		sbc r19,r25
 1917 0928 4A0B      		sbc r20,r26
 1918 092a 5B0B      		sbc r21,r27
 1919 092c 57FF      		sbrs r21,7
 1920 092e 00C0      		rjmp .L102
 1921 0930 20E0      		ldi r18,lo8(0)
 1922 0932 30E0      		ldi r19,hi8(0)
 1923 0934 40E0      		ldi r20,hlo8(0)
 1924 0936 50E0      		ldi r21,hhi8(0)
 1925               	.L102:
 1926               	.LM207:
 1927 0938 B901      		movw r22,r18
 1928               	.LVL109:
 1929 093a CA01      		movw r24,r20
 1930               	/* epilogue start */
 1931 093c 0895      		ret
 1932               	.LFE43:
 1934               	.global	Timebase_UpCounter_Period_Value_Expired
 1936               	Timebase_UpCounter_Period_Value_Expired:
 1937               	.LFB44:
 1938               	.LM208:
 1939               	.LVL110:
 1940 093e CF93      		push r28
 1941 0940 DF93      		push r29
 1942               	/* prologue: function */
 1943               	/* frame size = 0 */
 1944               	.LBB354:
 1945               	.LBB355:
 1946               	.LBB356:
 1947               	.LBB357:
 1948               	.LM209:
 1949 0942 C091 0000 		lds r28,Timebase
 1950 0946 D091 0000 		lds r29,(Timebase)+1
 1951 094a 682F      		mov r22,r24
 1952 094c 70E0      		ldi r23,lo8(0)
 1953               	.LBE357:
 1954               	.LBE356:
 1955               	.LM210:
 1956 094e 85E1      		ldi r24,lo8(21)
 1957 0950 90E0      		ldi r25,hi8(21)
 1958               	.LVL111:
 1959 0952 689F      		mul r22,r24
 1960 0954 F001      		movw r30,r0
 1961 0956 699F      		mul r22,r25
 1962 0958 F00D      		add r31,r0
 1963 095a 789F      		mul r23,r24
 1964 095c F00D      		add r31,r0
 1965 095e 1124      		clr r1
 1966 0960 EC0F      		add r30,r28
 1967 0962 FD1F      		adc r31,r29
 1968 0964 21A1      		ldd r18,Z+33
 1969 0966 32A1      		ldd r19,Z+34
 1970 0968 43A1      		ldd r20,Z+35
 1971 096a 54A1      		ldd r21,Z+36
 1972               	.LVL112:
 1973 096c 858D      		ldd r24,Z+29
 1974 096e 968D      		ldd r25,Z+30
 1975 0970 A78D      		ldd r26,Z+31
 1976 0972 B0A1      		ldd r27,Z+32
 1977 0974 281B      		sub r18,r24
 1978 0976 390B      		sbc r19,r25
 1979 0978 4A0B      		sbc r20,r26
 1980 097a 5B0B      		sbc r21,r27
 1981               	.LM211:
 1982 097c 57FD      		sbrc r21,7
 1983 097e 00C0      		rjmp .L105
 1984               	.LBE355:
 1985               	.LBE354:
 1986               	.LM212:
 1987 0980 2115      		cp r18,__zero_reg__
 1988 0982 3105      		cpc r19,__zero_reg__
 1989 0984 4105      		cpc r20,__zero_reg__
 1990 0986 5105      		cpc r21,__zero_reg__
 1991 0988 01F0      		breq .L105
 1992 098a 20E0      		ldi r18,lo8(0)
 1993               	.LVL113:
 1994 098c 00C0      		rjmp .L106
 1995               	.LVL114:
 1996               	.L105:
 1997 098e 20E0      		ldi r18,lo8(0)
 1998               	.LVL115:
 1999 0990 85E1      		ldi r24,lo8(21)
 2000 0992 90E0      		ldi r25,hi8(21)
 2001 0994 AC01      		movw r20,r24
 2002 0996 649F      		mul r22,r20
 2003 0998 C001      		movw r24,r0
 2004 099a 659F      		mul r22,r21
 2005 099c 900D      		add r25,r0
 2006 099e 749F      		mul r23,r20
 2007 09a0 900D      		add r25,r0
 2008 09a2 1124      		clr r1
 2009 09a4 C80F      		add r28,r24
 2010 09a6 D91F      		adc r29,r25
 2011 09a8 8889      		ldd r24,Y+16
 2012 09aa 80FF      		sbrs r24,0
 2013 09ac 21E0      		ldi r18,lo8(1)
 2014               	.L107:
 2015 09ae 81E0      		ldi r24,lo8(1)
 2016 09b0 2827      		eor r18,r24
 2017               	.L106:
 2018               	.LM213:
 2019 09b2 822F      		mov r24,r18
 2020               	/* epilogue start */
 2021 09b4 DF91      		pop r29
 2022 09b6 CF91      		pop r28
 2023 09b8 0895      		ret
 2024               	.LFE44:
 2026               	.global	Timebase_UpCounter_Period_Value_Expired_Event
 2028               	Timebase_UpCounter_Period_Value_Expired_Event:
 2029               	.LFB45:
 2030               	.LM214:
 2031               	.LVL116:
 2032 09ba 1F93      		push r17
 2033               	/* prologue: function */
 2034               	/* frame size = 0 */
 2035 09bc 182F      		mov r17,r24
 2036               	.LM215:
 2037 09be 0E94 0000 		call Timebase_UpCounter_Period_Value_Expired
 2038               	.LVL117:
 2039 09c2 8130      		cpi r24,lo8(1)
 2040 09c4 01F0      		breq .L110
 2041 09c6 80E0      		ldi r24,lo8(0)
 2042 09c8 00C0      		rjmp .L111
 2043               	.L110:
 2044               	.LBB358:
 2045               	.LBB359:
 2046               	.LM216:
 2047 09ca E091 0000 		lds r30,Timebase
 2048 09ce F091 0000 		lds r31,(Timebase)+1
 2049 09d2 212F      		mov r18,r17
 2050 09d4 30E0      		ldi r19,lo8(0)
 2051               	.LVL118:
 2052 09d6 85E1      		ldi r24,lo8(21)
 2053 09d8 90E0      		ldi r25,hi8(21)
 2054 09da AC01      		movw r20,r24
 2055 09dc 249F      		mul r18,r20
 2056 09de C001      		movw r24,r0
 2057 09e0 259F      		mul r18,r21
 2058 09e2 900D      		add r25,r0
 2059 09e4 349F      		mul r19,r20
 2060 09e6 900D      		add r25,r0
 2061 09e8 1124      		clr r1
 2062 09ea E80F      		add r30,r24
 2063 09ec F91F      		adc r31,r25
 2064 09ee 8089      		ldd r24,Z+16
 2065 09f0 8E7F      		andi r24,lo8(-2)
 2066 09f2 808B      		std Z+16,r24
 2067 09f4 81E0      		ldi r24,lo8(1)
 2068               	.L111:
 2069               	/* epilogue start */
 2070               	.LBE359:
 2071               	.LBE358:
 2072               	.LM217:
 2073 09f6 1F91      		pop r17
 2074               	.LVL119:
 2075 09f8 0895      		ret
 2076               	.LFE45:
 2078               	.global	Timebase_UpCounter_Update_All
 2080               	Timebase_UpCounter_Update_All:
 2081               	.LFB46:
 2082               	.LM218:
 2083               	/* prologue: function */
 2084               	/* frame size = 0 */
 2085               	.LBB360:
 2086               	.LM219:
 2087 09fa 80E0      		ldi r24,lo8(0)
 2088 09fc 0E94 0000 		call Timebase_UpCounter_Update
 2089               	/* epilogue start */
 2090               	.LBE360:
 2091               	.LM220:
 2092 0a00 0895      		ret
 2093               	.LFE46:
 2095               	.global	Timebase_UpCounter_Reset_All
 2097               	Timebase_UpCounter_Reset_All:
 2098               	.LFB47:
 2099               	.LM221:
 2100               	/* prologue: function */
 2101               	/* frame size = 0 */
 2102               	.LBB361:
 2103               	.LM222:
 2104 0a02 80E0      		ldi r24,lo8(0)
 2105 0a04 0E94 0000 		call Timebase_UpCounter_Reset
 2106               	/* epilogue start */
 2107               	.LBE361:
 2108               	.LM223:
 2109 0a08 0895      		ret
 2110               	.LFE47:
 2112               	.global	Timebase_DownCounter_Get_Status
 2114               	Timebase_DownCounter_Get_Status:
 2115               	.LFB48:
 2116               	.LM224:
 2117               	.LVL120:
 2118               	/* prologue: function */
 2119               	/* frame size = 0 */
 2120               	.LM225:
 2121 0a0a E091 0000 		lds r30,Timebase
 2122 0a0e F091 0000 		lds r31,(Timebase)+1
 2123 0a12 90E0      		ldi r25,lo8(0)
 2124               	.LVL121:
 2125 0a14 2DE0      		ldi r18,lo8(13)
 2126 0a16 30E0      		ldi r19,hi8(13)
 2127 0a18 AC01      		movw r20,r24
 2128 0a1a 429F      		mul r20,r18
 2129 0a1c C001      		movw r24,r0
 2130 0a1e 439F      		mul r20,r19
 2131 0a20 900D      		add r25,r0
 2132 0a22 529F      		mul r21,r18
 2133 0a24 900D      		add r25,r0
 2134 0a26 1124      		clr r1
 2135               	.LVL122:
 2136 0a28 E80F      		add r30,r24
 2137 0a2a F91F      		adc r31,r25
 2138 0a2c 85A1      		ldd r24,Z+37
 2139 0a2e 8695      		lsr r24
 2140               	.LM226:
 2141 0a30 8F70      		andi r24,lo8(15)
 2142               	/* epilogue start */
 2143 0a32 0895      		ret
 2144               	.LFE48:
 2146               	.global	Timebase_DownCounter_Set_Status
 2148               	Timebase_DownCounter_Set_Status:
 2149               	.LFB49:
 2150               	.LM227:
 2151               	.LVL123:
 2152               	/* prologue: function */
 2153               	/* frame size = 0 */
 2154               	.LM228:
 2155 0a34 E091 0000 		lds r30,Timebase
 2156 0a38 F091 0000 		lds r31,(Timebase)+1
 2157 0a3c 90E0      		ldi r25,lo8(0)
 2158               	.LVL124:
 2159 0a3e 2DE0      		ldi r18,lo8(13)
 2160 0a40 30E0      		ldi r19,hi8(13)
 2161 0a42 AC01      		movw r20,r24
 2162 0a44 429F      		mul r20,r18
 2163 0a46 C001      		movw r24,r0
 2164 0a48 439F      		mul r20,r19
 2165 0a4a 900D      		add r25,r0
 2166 0a4c 529F      		mul r21,r18
 2167 0a4e 900D      		add r25,r0
 2168 0a50 1124      		clr r1
 2169               	.LVL125:
 2170 0a52 E80F      		add r30,r24
 2171 0a54 F91F      		adc r31,r25
 2172 0a56 6F70      		andi r22,lo8(15)
 2173               	.LVL126:
 2174 0a58 660F      		lsl r22
 2175 0a5a 85A1      		ldd r24,Z+37
 2176 0a5c 817E      		andi r24,lo8(-31)
 2177 0a5e 862B      		or r24,r22
 2178 0a60 85A3      		std Z+37,r24
 2179               	/* epilogue start */
 2180               	.LM229:
 2181 0a62 0895      		ret
 2182               	.LFE49:
 2184               	.global	Timebase_DownCounter_Get_Value
 2186               	Timebase_DownCounter_Get_Value:
 2187               	.LFB50:
 2188               	.LM230:
 2189               	.LVL127:
 2190               	/* prologue: function */
 2191               	/* frame size = 0 */
 2192               	.LM231:
 2193 0a64 E091 0000 		lds r30,Timebase
 2194 0a68 F091 0000 		lds r31,(Timebase)+1
 2195 0a6c 90E0      		ldi r25,lo8(0)
 2196               	.LVL128:
 2197 0a6e 2DE0      		ldi r18,lo8(13)
 2198 0a70 30E0      		ldi r19,hi8(13)
 2199 0a72 AC01      		movw r20,r24
 2200 0a74 429F      		mul r20,r18
 2201 0a76 C001      		movw r24,r0
 2202 0a78 439F      		mul r20,r19
 2203 0a7a 900D      		add r25,r0
 2204 0a7c 529F      		mul r21,r18
 2205 0a7e 900D      		add r25,r0
 2206 0a80 1124      		clr r1
 2207               	.LVL129:
 2208 0a82 E80F      		add r30,r24
 2209 0a84 F91F      		adc r31,r25
 2210 0a86 DF01      		movw r26,r30
 2211 0a88 9A96      		adiw r26,42
 2212 0a8a 62A5      		ldd r22,Z+42
 2213 0a8c 1196      		adiw r26,1
 2214 0a8e 7C91      		ld r23,X
 2215 0a90 1197      		sbiw r26,1
 2216               	.LM232:
 2217 0a92 1296      		adiw r26,2
 2218 0a94 8C91      		ld r24,X
 2219 0a96 1297      		sbiw r26,2
 2220 0a98 1396      		adiw r26,3
 2221 0a9a 9C91      		ld r25,X
 2222               	.LVL130:
 2223               	/* epilogue start */
 2224 0a9c 0895      		ret
 2225               	.LFE50:
 2227               	.global	Timebase_DownCounter_Set_Value
 2229               	Timebase_DownCounter_Set_Value:
 2230               	.LFB51:
 2231               	.LM233:
 2232               	.LVL131:
 2233               	/* prologue: function */
 2234               	/* frame size = 0 */
 2235               	.LM234:
 2236 0a9e E091 0000 		lds r30,Timebase
 2237 0aa2 F091 0000 		lds r31,(Timebase)+1
 2238 0aa6 90E0      		ldi r25,lo8(0)
 2239               	.LVL132:
 2240 0aa8 2DE0      		ldi r18,lo8(13)
 2241 0aaa 30E0      		ldi r19,hi8(13)
 2242 0aac DC01      		movw r26,r24
 2243 0aae A29F      		mul r26,r18
 2244 0ab0 C001      		movw r24,r0
 2245 0ab2 A39F      		mul r26,r19
 2246 0ab4 900D      		add r25,r0
 2247 0ab6 B29F      		mul r27,r18
 2248 0ab8 900D      		add r25,r0
 2249 0aba 1124      		clr r1
 2250               	.LVL133:
 2251 0abc E80F      		add r30,r24
 2252 0abe F91F      		adc r31,r25
 2253 0ac0 42A7      		std Z+42,r20
 2254 0ac2 53A7      		std Z+43,r21
 2255 0ac4 64A7      		std Z+44,r22
 2256 0ac6 75A7      		std Z+45,r23
 2257               	/* epilogue start */
 2258               	.LM235:
 2259 0ac8 0895      		ret
 2260               	.LFE51:
 2262               	.global	Timebase_DownCounter_Get_EndValue
 2264               	Timebase_DownCounter_Get_EndValue:
 2265               	.LFB52:
 2266               	.LM236:
 2267               	.LVL134:
 2268               	/* prologue: function */
 2269               	/* frame size = 0 */
 2270               	.LM237:
 2271 0aca E091 0000 		lds r30,Timebase
 2272 0ace F091 0000 		lds r31,(Timebase)+1
 2273 0ad2 90E0      		ldi r25,lo8(0)
 2274               	.LVL135:
 2275 0ad4 2DE0      		ldi r18,lo8(13)
 2276 0ad6 30E0      		ldi r19,hi8(13)
 2277 0ad8 AC01      		movw r20,r24
 2278 0ada 429F      		mul r20,r18
 2279 0adc C001      		movw r24,r0
 2280 0ade 439F      		mul r20,r19
 2281 0ae0 900D      		add r25,r0
 2282 0ae2 529F      		mul r21,r18
 2283 0ae4 900D      		add r25,r0
 2284 0ae6 1124      		clr r1
 2285               	.LVL136:
 2286 0ae8 E80F      		add r30,r24
 2287 0aea F91F      		adc r31,r25
 2288 0aec DF01      		movw r26,r30
 2289 0aee 9696      		adiw r26,38
 2290 0af0 66A1      		ldd r22,Z+38
 2291 0af2 1196      		adiw r26,1
 2292 0af4 7C91      		ld r23,X
 2293 0af6 1197      		sbiw r26,1
 2294               	.LM238:
 2295 0af8 1296      		adiw r26,2
 2296 0afa 8C91      		ld r24,X
 2297 0afc 1297      		sbiw r26,2
 2298 0afe 1396      		adiw r26,3
 2299 0b00 9C91      		ld r25,X
 2300               	.LVL137:
 2301               	/* epilogue start */
 2302 0b02 0895      		ret
 2303               	.LFE52:
 2305               	.global	Timebase_DownCounter_Set_EndValue
 2307               	Timebase_DownCounter_Set_EndValue:
 2308               	.LFB53:
 2309               	.LM239:
 2310               	.LVL138:
 2311               	/* prologue: function */
 2312               	/* frame size = 0 */
 2313               	.LM240:
 2314 0b04 E091 0000 		lds r30,Timebase
 2315 0b08 F091 0000 		lds r31,(Timebase)+1
 2316 0b0c 90E0      		ldi r25,lo8(0)
 2317               	.LVL139:
 2318 0b0e 2DE0      		ldi r18,lo8(13)
 2319 0b10 30E0      		ldi r19,hi8(13)
 2320 0b12 DC01      		movw r26,r24
 2321 0b14 A29F      		mul r26,r18
 2322 0b16 C001      		movw r24,r0
 2323 0b18 A39F      		mul r26,r19
 2324 0b1a 900D      		add r25,r0
 2325 0b1c B29F      		mul r27,r18
 2326 0b1e 900D      		add r25,r0
 2327 0b20 1124      		clr r1
 2328               	.LVL140:
 2329 0b22 E80F      		add r30,r24
 2330 0b24 F91F      		adc r31,r25
 2331 0b26 46A3      		std Z+38,r20
 2332 0b28 57A3      		std Z+39,r21
 2333 0b2a 60A7      		std Z+40,r22
 2334 0b2c 71A7      		std Z+41,r23
 2335               	/* epilogue start */
 2336               	.LM241:
 2337 0b2e 0895      		ret
 2338               	.LFE53:
 2340               	.global	Timebase_DownCounter_Get_PeriodValue
 2342               	Timebase_DownCounter_Get_PeriodValue:
 2343               	.LFB54:
 2344               	.LM242:
 2345               	.LVL141:
 2346               	/* prologue: function */
 2347               	/* frame size = 0 */
 2348               	.LM243:
 2349 0b30 E091 0000 		lds r30,Timebase
 2350 0b34 F091 0000 		lds r31,(Timebase)+1
 2351 0b38 90E0      		ldi r25,lo8(0)
 2352               	.LVL142:
 2353 0b3a 2DE0      		ldi r18,lo8(13)
 2354 0b3c 30E0      		ldi r19,hi8(13)
 2355 0b3e AC01      		movw r20,r24
 2356 0b40 429F      		mul r20,r18
 2357 0b42 C001      		movw r24,r0
 2358 0b44 439F      		mul r20,r19
 2359 0b46 900D      		add r25,r0
 2360 0b48 529F      		mul r21,r18
 2361 0b4a 900D      		add r25,r0
 2362 0b4c 1124      		clr r1
 2363               	.LVL143:
 2364 0b4e E80F      		add r30,r24
 2365 0b50 F91F      		adc r31,r25
 2366 0b52 DF01      		movw r26,r30
 2367 0b54 9E96      		adiw r26,46
 2368 0b56 66A5      		ldd r22,Z+46
 2369 0b58 1196      		adiw r26,1
 2370 0b5a 7C91      		ld r23,X
 2371 0b5c 1197      		sbiw r26,1
 2372               	.LM244:
 2373 0b5e 1296      		adiw r26,2
 2374 0b60 8C91      		ld r24,X
 2375 0b62 1297      		sbiw r26,2
 2376 0b64 1396      		adiw r26,3
 2377 0b66 9C91      		ld r25,X
 2378               	.LVL144:
 2379               	/* epilogue start */
 2380 0b68 0895      		ret
 2381               	.LFE54:
 2383               	.global	Timebase_DownCounter_Set_PeriodValue
 2385               	Timebase_DownCounter_Set_PeriodValue:
 2386               	.LFB55:
 2387               	.LM245:
 2388               	.LVL145:
 2389               	/* prologue: function */
 2390               	/* frame size = 0 */
 2391               	.LM246:
 2392 0b6a E091 0000 		lds r30,Timebase
 2393 0b6e F091 0000 		lds r31,(Timebase)+1
 2394 0b72 90E0      		ldi r25,lo8(0)
 2395               	.LVL146:
 2396 0b74 2DE0      		ldi r18,lo8(13)
 2397 0b76 30E0      		ldi r19,hi8(13)
 2398 0b78 DC01      		movw r26,r24
 2399 0b7a A29F      		mul r26,r18
 2400 0b7c C001      		movw r24,r0
 2401 0b7e A39F      		mul r26,r19
 2402 0b80 900D      		add r25,r0
 2403 0b82 B29F      		mul r27,r18
 2404 0b84 900D      		add r25,r0
 2405 0b86 1124      		clr r1
 2406               	.LVL147:
 2407 0b88 E80F      		add r30,r24
 2408 0b8a F91F      		adc r31,r25
 2409 0b8c 46A7      		std Z+46,r20
 2410 0b8e 57A7      		std Z+47,r21
 2411 0b90 60AB      		std Z+48,r22
 2412 0b92 71AB      		std Z+49,r23
 2413               	/* epilogue start */
 2414               	.LM247:
 2415 0b94 0895      		ret
 2416               	.LFE55:
 2418               	.global	Timebase_DownCounter_Get_Period_Flag
 2420               	Timebase_DownCounter_Get_Period_Flag:
 2421               	.LFB56:
 2422               	.LM248:
 2423               	.LVL148:
 2424               	/* prologue: function */
 2425               	/* frame size = 0 */
 2426               	.LM249:
 2427 0b96 E091 0000 		lds r30,Timebase
 2428 0b9a F091 0000 		lds r31,(Timebase)+1
 2429 0b9e 90E0      		ldi r25,lo8(0)
 2430               	.LVL149:
 2431 0ba0 2DE0      		ldi r18,lo8(13)
 2432 0ba2 30E0      		ldi r19,hi8(13)
 2433 0ba4 AC01      		movw r20,r24
 2434 0ba6 429F      		mul r20,r18
 2435 0ba8 C001      		movw r24,r0
 2436 0baa 439F      		mul r20,r19
 2437 0bac 900D      		add r25,r0
 2438 0bae 529F      		mul r21,r18
 2439 0bb0 900D      		add r25,r0
 2440 0bb2 1124      		clr r1
 2441               	.LVL150:
 2442 0bb4 E80F      		add r30,r24
 2443 0bb6 F91F      		adc r31,r25
 2444 0bb8 85A1      		ldd r24,Z+37
 2445               	.LM250:
 2446 0bba 8170      		andi r24,lo8(1)
 2447               	/* epilogue start */
 2448 0bbc 0895      		ret
 2449               	.LFE56:
 2451               	.global	Timebase_DownCounter_Set_Period_Flag
 2453               	Timebase_DownCounter_Set_Period_Flag:
 2454               	.LFB57:
 2455               	.LM251:
 2456               	.LVL151:
 2457               	/* prologue: function */
 2458               	/* frame size = 0 */
 2459               	.LM252:
 2460 0bbe E091 0000 		lds r30,Timebase
 2461 0bc2 F091 0000 		lds r31,(Timebase)+1
 2462 0bc6 90E0      		ldi r25,lo8(0)
 2463               	.LVL152:
 2464 0bc8 2DE0      		ldi r18,lo8(13)
 2465 0bca 30E0      		ldi r19,hi8(13)
 2466 0bcc AC01      		movw r20,r24
 2467 0bce 429F      		mul r20,r18
 2468 0bd0 C001      		movw r24,r0
 2469 0bd2 439F      		mul r20,r19
 2470 0bd4 900D      		add r25,r0
 2471 0bd6 529F      		mul r21,r18
 2472 0bd8 900D      		add r25,r0
 2473 0bda 1124      		clr r1
 2474               	.LVL153:
 2475 0bdc E80F      		add r30,r24
 2476 0bde F91F      		adc r31,r25
 2477 0be0 85A1      		ldd r24,Z+37
 2478 0be2 8160      		ori r24,lo8(1)
 2479 0be4 85A3      		std Z+37,r24
 2480               	/* epilogue start */
 2481               	.LM253:
 2482 0be6 0895      		ret
 2483               	.LFE57:
 2485               	.global	Timebase_DownCounter_Clear_Period_Flag
 2487               	Timebase_DownCounter_Clear_Period_Flag:
 2488               	.LFB58:
 2489               	.LM254:
 2490               	.LVL154:
 2491               	/* prologue: function */
 2492               	/* frame size = 0 */
 2493               	.LM255:
 2494 0be8 E091 0000 		lds r30,Timebase
 2495 0bec F091 0000 		lds r31,(Timebase)+1
 2496 0bf0 90E0      		ldi r25,lo8(0)
 2497               	.LVL155:
 2498 0bf2 2DE0      		ldi r18,lo8(13)
 2499 0bf4 30E0      		ldi r19,hi8(13)
 2500 0bf6 AC01      		movw r20,r24
 2501 0bf8 429F      		mul r20,r18
 2502 0bfa C001      		movw r24,r0
 2503 0bfc 439F      		mul r20,r19
 2504 0bfe 900D      		add r25,r0
 2505 0c00 529F      		mul r21,r18
 2506 0c02 900D      		add r25,r0
 2507 0c04 1124      		clr r1
 2508               	.LVL156:
 2509 0c06 E80F      		add r30,r24
 2510 0c08 F91F      		adc r31,r25
 2511 0c0a 85A1      		ldd r24,Z+37
 2512 0c0c 8E7F      		andi r24,lo8(-2)
 2513 0c0e 85A3      		std Z+37,r24
 2514               	/* epilogue start */
 2515               	.LM256:
 2516 0c10 0895      		ret
 2517               	.LFE58:
 2519               	.global	Timebase_DownCounter_Reset
 2521               	Timebase_DownCounter_Reset:
 2522               	.LFB59:
 2523               	.LM257:
 2524               	.LVL157:
 2525               	/* prologue: function */
 2526               	/* frame size = 0 */
 2527               	.LBB362:
 2528               	.LBB363:
 2529               	.LM258:
 2530 0c12 E091 0000 		lds r30,Timebase
 2531 0c16 F091 0000 		lds r31,(Timebase)+1
 2532 0c1a 90E0      		ldi r25,lo8(0)
 2533 0c1c 2DE0      		ldi r18,lo8(13)
 2534 0c1e 30E0      		ldi r19,hi8(13)
 2535 0c20 AC01      		movw r20,r24
 2536               	.LVL158:
 2537 0c22 429F      		mul r20,r18
 2538 0c24 C001      		movw r24,r0
 2539 0c26 439F      		mul r20,r19
 2540 0c28 900D      		add r25,r0
 2541 0c2a 529F      		mul r21,r18
 2542 0c2c 900D      		add r25,r0
 2543 0c2e 1124      		clr r1
 2544 0c30 E80F      		add r30,r24
 2545 0c32 F91F      		adc r31,r25
 2546 0c34 16A2      		std Z+38,__zero_reg__
 2547 0c36 17A2      		std Z+39,__zero_reg__
 2548 0c38 10A6      		std Z+40,__zero_reg__
 2549 0c3a 11A6      		std Z+41,__zero_reg__
 2550               	.LBE363:
 2551               	.LBE362:
 2552               	.LBB364:
 2553               	.LBB365:
 2554               	.LM259:
 2555 0c3c 12A6      		std Z+42,__zero_reg__
 2556 0c3e 13A6      		std Z+43,__zero_reg__
 2557 0c40 14A6      		std Z+44,__zero_reg__
 2558 0c42 15A6      		std Z+45,__zero_reg__
 2559               	.LBE365:
 2560               	.LBE364:
 2561               	.LBB366:
 2562               	.LBB367:
 2563               	.LM260:
 2564 0c44 85A1      		ldd r24,Z+37
 2565               	.LBE367:
 2566               	.LBE366:
 2567               	.LBB368:
 2568               	.LBB369:
 2569               	.LM261:
 2570 0c46 807E      		andi r24,lo8(-32)
 2571 0c48 85A3      		std Z+37,r24
 2572               	/* epilogue start */
 2573               	.LBE369:
 2574               	.LBE368:
 2575               	.LM262:
 2576 0c4a 0895      		ret
 2577               	.LFE59:
 2579               	.global	Timebase_DownCounter_Clear_All_Flags
 2581               	Timebase_DownCounter_Clear_All_Flags:
 2582               	.LFB60:
 2583               	.LM263:
 2584               	.LVL159:
 2585               	/* prologue: function */
 2586               	/* frame size = 0 */
 2587               	.LBB370:
 2588               	.LBB371:
 2589               	.LBB372:
 2590               	.LBB373:
 2591               	.LM264:
 2592 0c4c E091 0000 		lds r30,Timebase
 2593 0c50 F091 0000 		lds r31,(Timebase)+1
 2594 0c54 90E0      		ldi r25,lo8(0)
 2595 0c56 2DE0      		ldi r18,lo8(13)
 2596 0c58 30E0      		ldi r19,hi8(13)
 2597 0c5a AC01      		movw r20,r24
 2598               	.LVL160:
 2599 0c5c 429F      		mul r20,r18
 2600 0c5e C001      		movw r24,r0
 2601 0c60 439F      		mul r20,r19
 2602 0c62 900D      		add r25,r0
 2603 0c64 529F      		mul r21,r18
 2604 0c66 900D      		add r25,r0
 2605 0c68 1124      		clr r1
 2606 0c6a E80F      		add r30,r24
 2607 0c6c F91F      		adc r31,r25
 2608 0c6e 16A2      		std Z+38,__zero_reg__
 2609 0c70 17A2      		std Z+39,__zero_reg__
 2610 0c72 10A6      		std Z+40,__zero_reg__
 2611 0c74 11A6      		std Z+41,__zero_reg__
 2612               	.LBE373:
 2613               	.LBE372:
 2614               	.LBB374:
 2615               	.LBB375:
 2616               	.LM265:
 2617 0c76 12A6      		std Z+42,__zero_reg__
 2618 0c78 13A6      		std Z+43,__zero_reg__
 2619 0c7a 14A6      		std Z+44,__zero_reg__
 2620 0c7c 15A6      		std Z+45,__zero_reg__
 2621               	.LBE375:
 2622               	.LBE374:
 2623               	.LBB376:
 2624               	.LBB377:
 2625               	.LM266:
 2626 0c7e 85A1      		ldd r24,Z+37
 2627               	.LBE377:
 2628               	.LBE376:
 2629               	.LBB378:
 2630               	.LBB379:
 2631               	.LM267:
 2632 0c80 807E      		andi r24,lo8(-32)
 2633 0c82 85A3      		std Z+37,r24
 2634               	/* epilogue start */
 2635               	.LBE379:
 2636               	.LBE378:
 2637               	.LBE371:
 2638               	.LBE370:
 2639               	.LM268:
 2640 0c84 0895      		ret
 2641               	.LFE60:
 2643               	.global	Timebase_DownCounter_Start
 2645               	Timebase_DownCounter_Start:
 2646               	.LFB61:
 2647               	.LM269:
 2648               	.LVL161:
 2649               	/* prologue: function */
 2650               	/* frame size = 0 */
 2651               	.LBB380:
 2652               	.LBB381:
 2653               	.LM270:
 2654 0c86 E091 0000 		lds r30,Timebase
 2655 0c8a F091 0000 		lds r31,(Timebase)+1
 2656 0c8e 90E0      		ldi r25,lo8(0)
 2657               	.LBE381:
 2658               	.LBE380:
 2659               	.LM271:
 2660 0c90 2DE0      		ldi r18,lo8(13)
 2661 0c92 30E0      		ldi r19,hi8(13)
 2662 0c94 AC01      		movw r20,r24
 2663               	.LVL162:
 2664 0c96 429F      		mul r20,r18
 2665 0c98 C001      		movw r24,r0
 2666 0c9a 439F      		mul r20,r19
 2667 0c9c 900D      		add r25,r0
 2668 0c9e 529F      		mul r21,r18
 2669 0ca0 900D      		add r25,r0
 2670 0ca2 1124      		clr r1
 2671 0ca4 E80F      		add r30,r24
 2672 0ca6 F91F      		adc r31,r25
 2673 0ca8 95A1      		ldd r25,Z+37
 2674 0caa 892F      		mov r24,r25
 2675 0cac 8695      		lsr r24
 2676 0cae 8F70      		andi r24,lo8(15)
 2677 0cb0 8130      		cpi r24,lo8(1)
 2678 0cb2 01F0      		breq .L145
 2679               	.LBB382:
 2680               	.LBB383:
 2681               	.LM272:
 2682 0cb4 917E      		andi r25,lo8(-31)
 2683 0cb6 9260      		ori r25,lo8(2)
 2684 0cb8 95A3      		std Z+37,r25
 2685               	.L145:
 2686 0cba 0895      		ret
 2687               	.LBE383:
 2688               	.LBE382:
 2689               	.LFE61:
 2691               	.global	Timebase_DownCounter_Stop
 2693               	Timebase_DownCounter_Stop:
 2694               	.LFB62:
 2695               	.LM273:
 2696               	.LVL163:
 2697               	/* prologue: function */
 2698               	/* frame size = 0 */
 2699               	.LBB384:
 2700               	.LBB385:
 2701               	.LM274:
 2702 0cbc E091 0000 		lds r30,Timebase
 2703 0cc0 F091 0000 		lds r31,(Timebase)+1
 2704 0cc4 90E0      		ldi r25,lo8(0)
 2705               	.LBE385:
 2706               	.LBE384:
 2707               	.LM275:
 2708 0cc6 2DE0      		ldi r18,lo8(13)
 2709 0cc8 30E0      		ldi r19,hi8(13)
 2710 0cca AC01      		movw r20,r24
 2711               	.LVL164:
 2712 0ccc 429F      		mul r20,r18
 2713 0cce C001      		movw r24,r0
 2714 0cd0 439F      		mul r20,r19
 2715 0cd2 900D      		add r25,r0
 2716 0cd4 529F      		mul r21,r18
 2717 0cd6 900D      		add r25,r0
 2718 0cd8 1124      		clr r1
 2719 0cda E80F      		add r30,r24
 2720 0cdc F91F      		adc r31,r25
 2721 0cde 95A1      		ldd r25,Z+37
 2722 0ce0 892F      		mov r24,r25
 2723 0ce2 8695      		lsr r24
 2724 0ce4 8F70      		andi r24,lo8(15)
 2725 0ce6 8230      		cpi r24,lo8(2)
 2726 0ce8 01F0      		breq .L148
 2727               	.LBB386:
 2728               	.LBB387:
 2729               	.LM276:
 2730 0cea 917E      		andi r25,lo8(-31)
 2731 0cec 9460      		ori r25,lo8(4)
 2732 0cee 95A3      		std Z+37,r25
 2733               	.L148:
 2734 0cf0 0895      		ret
 2735               	.LBE387:
 2736               	.LBE386:
 2737               	.LFE62:
 2739               	.global	Timebase_DownCounter_Set_Securely
 2741               	Timebase_DownCounter_Set_Securely:
 2742               	.LFB63:
 2743               	.LM277:
 2744               	.LVL165:
 2745               	/* prologue: function */
 2746               	/* frame size = 0 */
 2747               	.LBB388:
 2748               	.LBB389:
 2749               	.LM278:
 2750 0cf2 A091 0000 		lds r26,Timebase
 2751 0cf6 B091 0000 		lds r27,(Timebase)+1
 2752 0cfa 90E0      		ldi r25,lo8(0)
 2753               	.LBE389:
 2754               	.LBE388:
 2755               	.LM279:
 2756 0cfc 2DE0      		ldi r18,lo8(13)
 2757 0cfe 30E0      		ldi r19,hi8(13)
 2758 0d00 829F      		mul r24,r18
 2759 0d02 F001      		movw r30,r0
 2760 0d04 839F      		mul r24,r19
 2761 0d06 F00D      		add r31,r0
 2762 0d08 929F      		mul r25,r18
 2763 0d0a F00D      		add r31,r0
 2764 0d0c 1124      		clr r1
 2765               	.LVL166:
 2766 0d0e EA0F      		add r30,r26
 2767 0d10 FB1F      		adc r31,r27
 2768 0d12 85A1      		ldd r24,Z+37
 2769 0d14 8695      		lsr r24
 2770 0d16 8F70      		andi r24,lo8(15)
 2771 0d18 01F4      		brne .L151
 2772               	.LBB390:
 2773               	.LBB391:
 2774               	.LM280:
 2775 0d1a 42A7      		std Z+42,r20
 2776 0d1c 53A7      		std Z+43,r21
 2777 0d1e 64A7      		std Z+44,r22
 2778 0d20 75A7      		std Z+45,r23
 2779               	.LBE391:
 2780               	.LBE390:
 2781               	.LBB392:
 2782               	.LBB393:
 2783               	.LM281:
 2784 0d22 1B96      		adiw r26,11
 2785 0d24 8D91      		ld r24,X+
 2786 0d26 9D91      		ld r25,X+
 2787 0d28 0D90      		ld __tmp_reg__,X+
 2788 0d2a BC91      		ld r27,X
 2789 0d2c A02D      		mov r26,__tmp_reg__
 2790               	.LBE393:
 2791               	.LBE392:
 2792               	.LBB394:
 2793               	.LBB395:
 2794               	.LM282:
 2795 0d2e 840F      		add r24,r20
 2796 0d30 951F      		adc r25,r21
 2797 0d32 A61F      		adc r26,r22
 2798 0d34 B71F      		adc r27,r23
 2799 0d36 86A3      		std Z+38,r24
 2800 0d38 97A3      		std Z+39,r25
 2801 0d3a A0A7      		std Z+40,r26
 2802 0d3c B1A7      		std Z+41,r27
 2803               	.LBE395:
 2804               	.LBE394:
 2805               	.LBB396:
 2806               	.LBB397:
 2807               	.LM283:
 2808 0d3e 95A1      		ldd r25,Z+37
 2809 0d40 892F      		mov r24,r25
 2810 0d42 8695      		lsr r24
 2811 0d44 8F70      		andi r24,lo8(15)
 2812 0d46 8130      		cpi r24,lo8(1)
 2813 0d48 01F0      		breq .L151
 2814               	.LBB398:
 2815               	.LBB399:
 2816               	.LM284:
 2817 0d4a 917E      		andi r25,lo8(-31)
 2818 0d4c 9260      		ori r25,lo8(2)
 2819 0d4e 95A3      		std Z+37,r25
 2820               	.L151:
 2821 0d50 0895      		ret
 2822               	.LBE399:
 2823               	.LBE398:
 2824               	.LBE397:
 2825               	.LBE396:
 2826               	.LFE63:
 2828               	.global	Timebase_DownCounter_Set_Forcefully
 2830               	Timebase_DownCounter_Set_Forcefully:
 2831               	.LFB64:
 2832               	.LM285:
 2833               	.LVL167:
 2834 0d52 CF93      		push r28
 2835 0d54 DF93      		push r29
 2836               	/* prologue: function */
 2837               	/* frame size = 0 */
 2838               	.LBB400:
 2839               	.LBB401:
 2840               	.LBB402:
 2841               	.LBB403:
 2842               	.LM286:
 2843 0d56 E091 0000 		lds r30,Timebase
 2844 0d5a F091 0000 		lds r31,(Timebase)+1
 2845 0d5e A82F      		mov r26,r24
 2846 0d60 B0E0      		ldi r27,lo8(0)
 2847 0d62 2DE0      		ldi r18,lo8(13)
 2848 0d64 30E0      		ldi r19,hi8(13)
 2849 0d66 E901      		movw r28,r18
 2850 0d68 AC9F      		mul r26,r28
 2851 0d6a 9001      		movw r18,r0
 2852 0d6c AD9F      		mul r26,r29
 2853 0d6e 300D      		add r19,r0
 2854 0d70 BC9F      		mul r27,r28
 2855 0d72 300D      		add r19,r0
 2856 0d74 1124      		clr r1
 2857 0d76 E20F      		add r30,r18
 2858 0d78 F31F      		adc r31,r19
 2859 0d7a 16A2      		std Z+38,__zero_reg__
 2860 0d7c 17A2      		std Z+39,__zero_reg__
 2861 0d7e 10A6      		std Z+40,__zero_reg__
 2862 0d80 11A6      		std Z+41,__zero_reg__
 2863               	.LBE403:
 2864               	.LBE402:
 2865               	.LBB404:
 2866               	.LBB405:
 2867               	.LM287:
 2868 0d82 12A6      		std Z+42,__zero_reg__
 2869 0d84 13A6      		std Z+43,__zero_reg__
 2870 0d86 14A6      		std Z+44,__zero_reg__
 2871 0d88 15A6      		std Z+45,__zero_reg__
 2872               	.LBE405:
 2873               	.LBE404:
 2874               	.LBB406:
 2875               	.LBB407:
 2876               	.LM288:
 2877 0d8a 95A1      		ldd r25,Z+37
 2878               	.LBE407:
 2879               	.LBE406:
 2880               	.LBB408:
 2881               	.LBB409:
 2882               	.LM289:
 2883 0d8c 907E      		andi r25,lo8(-32)
 2884 0d8e 95A3      		std Z+37,r25
 2885               	.LBE409:
 2886               	.LBE408:
 2887               	.LBE401:
 2888               	.LBE400:
 2889               	.LM290:
 2890 0d90 0E94 0000 		call Timebase_DownCounter_Set_Securely
 2891               	.LVL168:
 2892               	/* epilogue start */
 2893               	.LM291:
 2894 0d94 DF91      		pop r29
 2895 0d96 CF91      		pop r28
 2896 0d98 0895      		ret
 2897               	.LFE64:
 2899               	.global	Timebase_DownCounter_Update
 2901               	Timebase_DownCounter_Update:
 2902               	.LFB65:
 2903               	.LM292:
 2904               	.LVL169:
 2905               	/* prologue: function */
 2906               	/* frame size = 0 */
 2907               	.LBB410:
 2908               	.LBB411:
 2909               	.LM293:
 2910 0d9a A091 0000 		lds r26,Timebase
 2911 0d9e B091 0000 		lds r27,(Timebase)+1
 2912 0da2 90E0      		ldi r25,lo8(0)
 2913 0da4 2DE0      		ldi r18,lo8(13)
 2914 0da6 30E0      		ldi r19,hi8(13)
 2915 0da8 829F      		mul r24,r18
 2916 0daa F001      		movw r30,r0
 2917 0dac 839F      		mul r24,r19
 2918 0dae F00D      		add r31,r0
 2919 0db0 929F      		mul r25,r18
 2920 0db2 F00D      		add r31,r0
 2921 0db4 1124      		clr r1
 2922               	.LVL170:
 2923 0db6 EA0F      		add r30,r26
 2924 0db8 FB1F      		adc r31,r27
 2925 0dba 85A1      		ldd r24,Z+37
 2926 0dbc 8695      		lsr r24
 2927 0dbe 8F70      		andi r24,lo8(15)
 2928               	.LBE411:
 2929               	.LBE410:
 2930               	.LM294:
 2931 0dc0 8130      		cpi r24,lo8(1)
 2932 0dc2 01F4      		brne .L155
 2933               	.LBB412:
 2934               	.LBB413:
 2935               	.LM295:
 2936 0dc4 1B96      		adiw r26,11
 2937 0dc6 2D91      		ld r18,X+
 2938 0dc8 3D91      		ld r19,X+
 2939 0dca 4D91      		ld r20,X+
 2940 0dcc 5C91      		ld r21,X
 2941 0dce 1E97      		sbiw r26,11+3
 2942               	.LBE413:
 2943               	.LBE412:
 2944               	.LBB414:
 2945               	.LBB415:
 2946               	.LM296:
 2947 0dd0 86A1      		ldd r24,Z+38
 2948 0dd2 97A1      		ldd r25,Z+39
 2949 0dd4 A0A5      		ldd r26,Z+40
 2950 0dd6 B1A5      		ldd r27,Z+41
 2951 0dd8 821B      		sub r24,r18
 2952 0dda 930B      		sbc r25,r19
 2953 0ddc A40B      		sbc r26,r20
 2954 0dde B50B      		sbc r27,r21
 2955 0de0 82A7      		std Z+42,r24
 2956 0de2 93A7      		std Z+43,r25
 2957 0de4 A4A7      		std Z+44,r26
 2958 0de6 B5A7      		std Z+45,r27
 2959               	.LBE415:
 2960               	.LBE414:
 2961               	.LM297:
 2962 0de8 0097      		sbiw r24,0
 2963 0dea A105      		cpc r26,__zero_reg__
 2964 0dec B105      		cpc r27,__zero_reg__
 2965 0dee 01F4      		brne .L157
 2966               	.LBB416:
 2967               	.LBB417:
 2968               	.LBB418:
 2969               	.LBB419:
 2970               	.LM298:
 2971 0df0 16A2      		std Z+38,__zero_reg__
 2972 0df2 17A2      		std Z+39,__zero_reg__
 2973 0df4 10A6      		std Z+40,__zero_reg__
 2974 0df6 11A6      		std Z+41,__zero_reg__
 2975               	.LBE419:
 2976               	.LBE418:
 2977               	.LBB420:
 2978               	.LBB421:
 2979               	.LM299:
 2980 0df8 12A6      		std Z+42,__zero_reg__
 2981 0dfa 13A6      		std Z+43,__zero_reg__
 2982 0dfc 14A6      		std Z+44,__zero_reg__
 2983 0dfe 15A6      		std Z+45,__zero_reg__
 2984               	.LBE421:
 2985               	.LBE420:
 2986               	.LBB422:
 2987               	.LBB423:
 2988               	.LM300:
 2989 0e00 85A1      		ldd r24,Z+37
 2990               	.LBE423:
 2991               	.LBE422:
 2992               	.LBE417:
 2993               	.LBE416:
 2994               	.LBB424:
 2995               	.LBB425:
 2996               	.LM301:
 2997 0e02 807E      		andi r24,lo8(-32)
 2998 0e04 8860      		ori r24,lo8(8)
 2999 0e06 85A3      		std Z+37,r24
 3000 0e08 0895      		ret
 3001               	.L155:
 3002               	.LBE425:
 3003               	.LBE424:
 3004               	.LM302:
 3005 0e0a 8230      		cpi r24,lo8(2)
 3006 0e0c 01F4      		brne .L157
 3007               	.LBB426:
 3008               	.LBB427:
 3009               	.LM303:
 3010 0e0e 1B96      		adiw r26,11
 3011 0e10 2D91      		ld r18,X+
 3012 0e12 3D91      		ld r19,X+
 3013 0e14 4D91      		ld r20,X+
 3014 0e16 5C91      		ld r21,X
 3015 0e18 1E97      		sbiw r26,11+3
 3016               	.LBE427:
 3017               	.LBE426:
 3018               	.LBB428:
 3019               	.LBB429:
 3020               	.LM304:
 3021 0e1a 82A5      		ldd r24,Z+42
 3022 0e1c 93A5      		ldd r25,Z+43
 3023 0e1e A4A5      		ldd r26,Z+44
 3024 0e20 B5A5      		ldd r27,Z+45
 3025 0e22 820F      		add r24,r18
 3026 0e24 931F      		adc r25,r19
 3027 0e26 A41F      		adc r26,r20
 3028 0e28 B51F      		adc r27,r21
 3029 0e2a 86A3      		std Z+38,r24
 3030 0e2c 97A3      		std Z+39,r25
 3031 0e2e A0A7      		std Z+40,r26
 3032 0e30 B1A7      		std Z+41,r27
 3033               	.L157:
 3034 0e32 0895      		ret
 3035               	.LBE429:
 3036               	.LBE428:
 3037               	.LFE65:
 3039               	.global	Timebase_DownCounter_Expired
 3041               	Timebase_DownCounter_Expired:
 3042               	.LFB66:
 3043               	.LM305:
 3044               	.LVL171:
 3045               	/* prologue: function */
 3046               	/* frame size = 0 */
 3047               	.LM306:
 3048 0e34 40E0      		ldi r20,lo8(0)
 3049 0e36 E091 0000 		lds r30,Timebase
 3050 0e3a F091 0000 		lds r31,(Timebase)+1
 3051 0e3e 90E0      		ldi r25,lo8(0)
 3052               	.LVL172:
 3053 0e40 2DE0      		ldi r18,lo8(13)
 3054 0e42 30E0      		ldi r19,hi8(13)
 3055 0e44 BC01      		movw r22,r24
 3056 0e46 629F      		mul r22,r18
 3057 0e48 C001      		movw r24,r0
 3058 0e4a 639F      		mul r22,r19
 3059 0e4c 900D      		add r25,r0
 3060 0e4e 729F      		mul r23,r18
 3061 0e50 900D      		add r25,r0
 3062 0e52 1124      		clr r1
 3063               	.LVL173:
 3064 0e54 E80F      		add r30,r24
 3065 0e56 F91F      		adc r31,r25
 3066 0e58 85A1      		ldd r24,Z+37
 3067 0e5a 8695      		lsr r24
 3068 0e5c 8F70      		andi r24,lo8(15)
 3069 0e5e 8430      		cpi r24,lo8(4)
 3070 0e60 01F4      		brne .L159
 3071 0e62 41E0      		ldi r20,lo8(1)
 3072               	.L159:
 3073               	.LM307:
 3074 0e64 842F      		mov r24,r20
 3075               	/* epilogue start */
 3076 0e66 0895      		ret
 3077               	.LFE66:
 3079               	.global	Timebase_DownCounter_Expired_Event
 3081               	Timebase_DownCounter_Expired_Event:
 3082               	.LFB67:
 3083               	.LM308:
 3084               	.LVL174:
 3085               	/* prologue: function */
 3086               	/* frame size = 0 */
 3087               	.LBB430:
 3088               	.LBB431:
 3089               	.LM309:
 3090 0e68 E091 0000 		lds r30,Timebase
 3091 0e6c F091 0000 		lds r31,(Timebase)+1
 3092 0e70 90E0      		ldi r25,lo8(0)
 3093               	.LBE431:
 3094               	.LBE430:
 3095               	.LM310:
 3096 0e72 2DE0      		ldi r18,lo8(13)
 3097 0e74 30E0      		ldi r19,hi8(13)
 3098 0e76 AC01      		movw r20,r24
 3099               	.LVL175:
 3100 0e78 429F      		mul r20,r18
 3101 0e7a C001      		movw r24,r0
 3102 0e7c 439F      		mul r20,r19
 3103 0e7e 900D      		add r25,r0
 3104 0e80 529F      		mul r21,r18
 3105 0e82 900D      		add r25,r0
 3106 0e84 1124      		clr r1
 3107 0e86 E80F      		add r30,r24
 3108 0e88 F91F      		adc r31,r25
 3109 0e8a 85A1      		ldd r24,Z+37
 3110 0e8c 8695      		lsr r24
 3111 0e8e 8F70      		andi r24,lo8(15)
 3112 0e90 8430      		cpi r24,lo8(4)
 3113 0e92 01F0      		breq .L162
 3114 0e94 80E0      		ldi r24,lo8(0)
 3115 0e96 0895      		ret
 3116               	.L162:
 3117               	.LBB432:
 3118               	.LBB433:
 3119               	.LBB434:
 3120               	.LBB435:
 3121               	.LBB436:
 3122               	.LBB437:
 3123               	.LM311:
 3124 0e98 16A2      		std Z+38,__zero_reg__
 3125 0e9a 17A2      		std Z+39,__zero_reg__
 3126 0e9c 10A6      		std Z+40,__zero_reg__
 3127 0e9e 11A6      		std Z+41,__zero_reg__
 3128               	.LBE437:
 3129               	.LBE436:
 3130               	.LBB438:
 3131               	.LBB439:
 3132               	.LM312:
 3133 0ea0 12A6      		std Z+42,__zero_reg__
 3134 0ea2 13A6      		std Z+43,__zero_reg__
 3135 0ea4 14A6      		std Z+44,__zero_reg__
 3136 0ea6 15A6      		std Z+45,__zero_reg__
 3137               	.LBE439:
 3138               	.LBE438:
 3139               	.LBB440:
 3140               	.LBB441:
 3141               	.LM313:
 3142 0ea8 85A1      		ldd r24,Z+37
 3143               	.LBE441:
 3144               	.LBE440:
 3145               	.LBB442:
 3146               	.LBB443:
 3147               	.LM314:
 3148 0eaa 807E      		andi r24,lo8(-32)
 3149 0eac 85A3      		std Z+37,r24
 3150 0eae 81E0      		ldi r24,lo8(1)
 3151               	.LBE443:
 3152               	.LBE442:
 3153               	.LBE435:
 3154               	.LBE434:
 3155               	.LBE433:
 3156               	.LBE432:
 3157               	.LM315:
 3158 0eb0 0895      		ret
 3159               	.LFE67:
 3161               	.global	Timebase_DownCounter_Set_Period_Value_Securely
 3163               	Timebase_DownCounter_Set_Period_Value_Securely:
 3164               	.LFB68:
 3165               	.LM316:
 3166               	.LVL176:
 3167               	/* prologue: function */
 3168               	/* frame size = 0 */
 3169               	.LBB444:
 3170               	.LBB445:
 3171               	.LM317:
 3172 0eb2 E091 0000 		lds r30,Timebase
 3173 0eb6 F091 0000 		lds r31,(Timebase)+1
 3174 0eba 90E0      		ldi r25,lo8(0)
 3175               	.LBE445:
 3176               	.LBE444:
 3177               	.LM318:
 3178 0ebc 2DE0      		ldi r18,lo8(13)
 3179 0ebe 30E0      		ldi r19,hi8(13)
 3180 0ec0 DC01      		movw r26,r24
 3181               	.LVL177:
 3182 0ec2 A29F      		mul r26,r18
 3183 0ec4 C001      		movw r24,r0
 3184 0ec6 A39F      		mul r26,r19
 3185 0ec8 900D      		add r25,r0
 3186 0eca B29F      		mul r27,r18
 3187 0ecc 900D      		add r25,r0
 3188 0ece 1124      		clr r1
 3189 0ed0 E80F      		add r30,r24
 3190 0ed2 F91F      		adc r31,r25
 3191 0ed4 85A1      		ldd r24,Z+37
 3192 0ed6 80FD      		sbrc r24,0
 3193 0ed8 00C0      		rjmp .L167
 3194               	.LBB446:
 3195               	.LBB447:
 3196               	.LM319:
 3197 0eda 82A5      		ldd r24,Z+42
 3198 0edc 93A5      		ldd r25,Z+43
 3199 0ede A4A5      		ldd r26,Z+44
 3200 0ee0 B5A5      		ldd r27,Z+45
 3201 0ee2 841B      		sub r24,r20
 3202 0ee4 950B      		sbc r25,r21
 3203 0ee6 A60B      		sbc r26,r22
 3204 0ee8 B70B      		sbc r27,r23
 3205 0eea 86A7      		std Z+46,r24
 3206 0eec 97A7      		std Z+47,r25
 3207 0eee A0AB      		std Z+48,r26
 3208 0ef0 B1AB      		std Z+49,r27
 3209               	.LBE447:
 3210               	.LBE446:
 3211               	.LBB448:
 3212               	.LBB449:
 3213               	.LM320:
 3214 0ef2 85A1      		ldd r24,Z+37
 3215 0ef4 8160      		ori r24,lo8(1)
 3216 0ef6 85A3      		std Z+37,r24
 3217               	.L167:
 3218 0ef8 0895      		ret
 3219               	.LBE449:
 3220               	.LBE448:
 3221               	.LFE68:
 3223               	.global	Timebase_DownCounter_Get_Remaining_Period_Value
 3225               	Timebase_DownCounter_Get_Remaining_Period_Value:
 3226               	.LFB69:
 3227               	.LM321:
 3228               	.LVL178:
 3229               	/* prologue: function */
 3230               	/* frame size = 0 */
 3231               	.LBB450:
 3232               	.LBB451:
 3233               	.LM322:
 3234 0efa E091 0000 		lds r30,Timebase
 3235 0efe F091 0000 		lds r31,(Timebase)+1
 3236 0f02 90E0      		ldi r25,lo8(0)
 3237               	.LBE451:
 3238               	.LBE450:
 3239               	.LM323:
 3240 0f04 2DE0      		ldi r18,lo8(13)
 3241 0f06 30E0      		ldi r19,hi8(13)
 3242 0f08 AC01      		movw r20,r24
 3243               	.LVL179:
 3244 0f0a 429F      		mul r20,r18
 3245 0f0c C001      		movw r24,r0
 3246 0f0e 439F      		mul r20,r19
 3247 0f10 900D      		add r25,r0
 3248 0f12 529F      		mul r21,r18
 3249 0f14 900D      		add r25,r0
 3250 0f16 1124      		clr r1
 3251 0f18 E80F      		add r30,r24
 3252 0f1a F91F      		adc r31,r25
 3253 0f1c 22A5      		ldd r18,Z+42
 3254 0f1e 33A5      		ldd r19,Z+43
 3255 0f20 44A5      		ldd r20,Z+44
 3256 0f22 55A5      		ldd r21,Z+45
 3257               	.LVL180:
 3258 0f24 86A5      		ldd r24,Z+46
 3259 0f26 97A5      		ldd r25,Z+47
 3260 0f28 A0A9      		ldd r26,Z+48
 3261 0f2a B1A9      		ldd r27,Z+49
 3262 0f2c 281B      		sub r18,r24
 3263 0f2e 390B      		sbc r19,r25
 3264 0f30 4A0B      		sbc r20,r26
 3265 0f32 5B0B      		sbc r21,r27
 3266 0f34 57FF      		sbrs r21,7
 3267 0f36 00C0      		rjmp .L169
 3268 0f38 20E0      		ldi r18,lo8(0)
 3269 0f3a 30E0      		ldi r19,hi8(0)
 3270 0f3c 40E0      		ldi r20,hlo8(0)
 3271 0f3e 50E0      		ldi r21,hhi8(0)
 3272               	.L169:
 3273               	.LM324:
 3274 0f40 B901      		movw r22,r18
 3275               	.LVL181:
 3276 0f42 CA01      		movw r24,r20
 3277               	/* epilogue start */
 3278 0f44 0895      		ret
 3279               	.LFE69:
 3281               	.global	Timebase_DownCounter_Period_Value_Expired
 3283               	Timebase_DownCounter_Period_Value_Expired:
 3284               	.LFB70:
 3285               	.LM325:
 3286               	.LVL182:
 3287 0f46 CF93      		push r28
 3288 0f48 DF93      		push r29
 3289               	/* prologue: function */
 3290               	/* frame size = 0 */
 3291               	.LBB452:
 3292               	.LBB453:
 3293               	.LBB454:
 3294               	.LBB455:
 3295               	.LM326:
 3296 0f4a C091 0000 		lds r28,Timebase
 3297 0f4e D091 0000 		lds r29,(Timebase)+1
 3298 0f52 682F      		mov r22,r24
 3299 0f54 70E0      		ldi r23,lo8(0)
 3300               	.LBE455:
 3301               	.LBE454:
 3302               	.LM327:
 3303 0f56 8DE0      		ldi r24,lo8(13)
 3304 0f58 90E0      		ldi r25,hi8(13)
 3305               	.LVL183:
 3306 0f5a 689F      		mul r22,r24
 3307 0f5c F001      		movw r30,r0
 3308 0f5e 699F      		mul r22,r25
 3309 0f60 F00D      		add r31,r0
 3310 0f62 789F      		mul r23,r24
 3311 0f64 F00D      		add r31,r0
 3312 0f66 1124      		clr r1
 3313 0f68 EC0F      		add r30,r28
 3314 0f6a FD1F      		adc r31,r29
 3315 0f6c 22A5      		ldd r18,Z+42
 3316 0f6e 33A5      		ldd r19,Z+43
 3317 0f70 44A5      		ldd r20,Z+44
 3318 0f72 55A5      		ldd r21,Z+45
 3319               	.LVL184:
 3320 0f74 86A5      		ldd r24,Z+46
 3321 0f76 97A5      		ldd r25,Z+47
 3322 0f78 A0A9      		ldd r26,Z+48
 3323 0f7a B1A9      		ldd r27,Z+49
 3324 0f7c 281B      		sub r18,r24
 3325 0f7e 390B      		sbc r19,r25
 3326 0f80 4A0B      		sbc r20,r26
 3327 0f82 5B0B      		sbc r21,r27
 3328               	.LM328:
 3329 0f84 57FD      		sbrc r21,7
 3330 0f86 00C0      		rjmp .L172
 3331               	.LBE453:
 3332               	.LBE452:
 3333               	.LM329:
 3334 0f88 2115      		cp r18,__zero_reg__
 3335 0f8a 3105      		cpc r19,__zero_reg__
 3336 0f8c 4105      		cpc r20,__zero_reg__
 3337 0f8e 5105      		cpc r21,__zero_reg__
 3338 0f90 01F0      		breq .L172
 3339 0f92 20E0      		ldi r18,lo8(0)
 3340               	.LVL185:
 3341 0f94 00C0      		rjmp .L173
 3342               	.LVL186:
 3343               	.L172:
 3344 0f96 20E0      		ldi r18,lo8(0)
 3345               	.LVL187:
 3346 0f98 8DE0      		ldi r24,lo8(13)
 3347 0f9a 90E0      		ldi r25,hi8(13)
 3348 0f9c AC01      		movw r20,r24
 3349 0f9e 649F      		mul r22,r20
 3350 0fa0 C001      		movw r24,r0
 3351 0fa2 659F      		mul r22,r21
 3352 0fa4 900D      		add r25,r0
 3353 0fa6 749F      		mul r23,r20
 3354 0fa8 900D      		add r25,r0
 3355 0faa 1124      		clr r1
 3356 0fac C80F      		add r28,r24
 3357 0fae D91F      		adc r29,r25
 3358 0fb0 8DA1      		ldd r24,Y+37
 3359 0fb2 80FF      		sbrs r24,0
 3360 0fb4 21E0      		ldi r18,lo8(1)
 3361               	.L174:
 3362 0fb6 81E0      		ldi r24,lo8(1)
 3363 0fb8 2827      		eor r18,r24
 3364               	.L173:
 3365               	.LM330:
 3366 0fba 822F      		mov r24,r18
 3367               	/* epilogue start */
 3368 0fbc DF91      		pop r29
 3369 0fbe CF91      		pop r28
 3370 0fc0 0895      		ret
 3371               	.LFE70:
 3373               	.global	Timebase_DownCounter_Period_Value_Expired_Event
 3375               	Timebase_DownCounter_Period_Value_Expired_Event:
 3376               	.LFB71:
 3377               	.LM331:
 3378               	.LVL188:
 3379 0fc2 1F93      		push r17
 3380               	/* prologue: function */
 3381               	/* frame size = 0 */
 3382 0fc4 182F      		mov r17,r24
 3383               	.LM332:
 3384 0fc6 0E94 0000 		call Timebase_DownCounter_Period_Value_Expired
 3385               	.LVL189:
 3386 0fca 8130      		cpi r24,lo8(1)
 3387 0fcc 01F0      		breq .L177
 3388 0fce 80E0      		ldi r24,lo8(0)
 3389 0fd0 00C0      		rjmp .L178
 3390               	.L177:
 3391               	.LBB456:
 3392               	.LBB457:
 3393               	.LM333:
 3394 0fd2 E091 0000 		lds r30,Timebase
 3395 0fd6 F091 0000 		lds r31,(Timebase)+1
 3396 0fda 212F      		mov r18,r17
 3397 0fdc 30E0      		ldi r19,lo8(0)
 3398               	.LVL190:
 3399 0fde 8DE0      		ldi r24,lo8(13)
 3400 0fe0 90E0      		ldi r25,hi8(13)
 3401 0fe2 AC01      		movw r20,r24
 3402 0fe4 249F      		mul r18,r20
 3403 0fe6 C001      		movw r24,r0
 3404 0fe8 259F      		mul r18,r21
 3405 0fea 900D      		add r25,r0
 3406 0fec 349F      		mul r19,r20
 3407 0fee 900D      		add r25,r0
 3408 0ff0 1124      		clr r1
 3409 0ff2 E80F      		add r30,r24
 3410 0ff4 F91F      		adc r31,r25
 3411 0ff6 85A1      		ldd r24,Z+37
 3412 0ff8 8E7F      		andi r24,lo8(-2)
 3413 0ffa 85A3      		std Z+37,r24
 3414 0ffc 81E0      		ldi r24,lo8(1)
 3415               	.L178:
 3416               	/* epilogue start */
 3417               	.LBE457:
 3418               	.LBE456:
 3419               	.LM334:
 3420 0ffe 1F91      		pop r17
 3421               	.LVL191:
 3422 1000 0895      		ret
 3423               	.LFE71:
 3425               	.global	Timebase_DownCounter_Update_All
 3427               	Timebase_DownCounter_Update_All:
 3428               	.LFB72:
 3429               	.LM335:
 3430               	/* prologue: function */
 3431               	/* frame size = 0 */
 3432               	.LBB458:
 3433               	.LM336:
 3434 1002 80E0      		ldi r24,lo8(0)
 3435 1004 0E94 0000 		call Timebase_DownCounter_Update
 3436               	/* epilogue start */
 3437               	.LBE458:
 3438               	.LM337:
 3439 1008 0895      		ret
 3440               	.LFE72:
 3442               	.global	Timebase_DownCounter_Reset_All
 3444               	Timebase_DownCounter_Reset_All:
 3445               	.LFB73:
 3446               	.LM338:
 3447               	/* prologue: function */
 3448               	/* frame size = 0 */
 3449               	.LBB459:
 3450               	.LBB460:
 3451               	.LBB461:
 3452               	.LBB462:
 3453               	.LBB463:
 3454               	.LM339:
 3455 100a E091 0000 		lds r30,Timebase
 3456 100e F091 0000 		lds r31,(Timebase)+1
 3457 1012 16A2      		std Z+38,__zero_reg__
 3458 1014 17A2      		std Z+39,__zero_reg__
 3459 1016 10A6      		std Z+40,__zero_reg__
 3460 1018 11A6      		std Z+41,__zero_reg__
 3461               	.LBE463:
 3462               	.LBE462:
 3463               	.LBB464:
 3464               	.LBB465:
 3465               	.LM340:
 3466 101a 12A6      		std Z+42,__zero_reg__
 3467 101c 13A6      		std Z+43,__zero_reg__
 3468 101e 14A6      		std Z+44,__zero_reg__
 3469 1020 15A6      		std Z+45,__zero_reg__
 3470               	.LBE465:
 3471               	.LBE464:
 3472               	.LBB466:
 3473               	.LBB467:
 3474               	.LM341:
 3475 1022 85A1      		ldd r24,Z+37
 3476               	.LBE467:
 3477               	.LBE466:
 3478               	.LBB468:
 3479               	.LBB469:
 3480               	.LM342:
 3481 1024 807E      		andi r24,lo8(-32)
 3482 1026 85A3      		std Z+37,r24
 3483               	/* epilogue start */
 3484               	.LBE469:
 3485               	.LBE468:
 3486               	.LBE461:
 3487               	.LBE460:
 3488               	.LBE459:
 3489               	.LM343:
 3490 1028 0895      		ret
 3491               	.LFE73:
 3493               	.global	Timebase_Reset
 3495               	Timebase_Reset:
 3496               	.LFB74:
 3497               	.LM344:
 3498               	/* prologue: function */
 3499               	/* frame size = 0 */
 3500               	.LM345:
 3501 102a 0E94 0000 		call Timebase_UpCounter_Reset_All
 3502               	.LM346:
 3503 102e 0E94 0000 		call Timebase_DownCounter_Reset_All
 3504               	/* epilogue start */
 3505               	.LM347:
 3506 1032 0895      		ret
 3507               	.LFE74:
 3509               	.global	Timebase_Init
 3511               	Timebase_Init:
 3512               	.LFB75:
 3513               	.LM348:
 3514               	.LVL192:
 3515 1034 0F93      		push r16
 3516 1036 1F93      		push r17
 3517               	/* prologue: function */
 3518               	/* frame size = 0 */
 3519 1038 8C01      		movw r16,r24
 3520               	.LM349:
 3521 103a 0E94 0000 		call Timebase_Struct_Init
 3522               	.LVL193:
 3523               	.LM350:
 3524 103e C801      		movw r24,r16
 3525 1040 0E94 0000 		call Timebase_Timer_Config
 3526               	.LM351:
 3527 1044 0E94 0000 		call Timebase_Reset
 3528               	/* epilogue start */
 3529               	.LM352:
 3530 1048 1F91      		pop r17
 3531 104a 0F91      		pop r16
 3532               	.LVL194:
 3533 104c 0895      		ret
 3534               	.LFE75:
 3536               	.global	Timebase_Main_Loop_Executables
 3538               	Timebase_Main_Loop_Executables:
 3539               	.LFB76:
 3540               	.LM353:
 3541               	/* prologue: function */
 3542               	/* frame size = 0 */
 3543               	.LM354:
 3544 104e E091 0000 		lds r30,Timebase
 3545 1052 F091 0000 		lds r31,(Timebase)+1
 3546 1056 82A9      		ldd r24,Z+50
 3547 1058 8823      		tst r24
 3548 105a 01F0      		breq .L190
 3549               	.LM355:
 3550 105c 0E94 0000 		call Timebase_UpCounter_Update_All
 3551               	.LM356:
 3552 1060 0E94 0000 		call Timebase_DownCounter_Update_All
 3553               	.LM357:
 3554 1064 E091 0000 		lds r30,Timebase
 3555 1068 F091 0000 		lds r31,(Timebase)+1
 3556 106c 12AA      		std Z+50,__zero_reg__
 3557               	.L190:
 3558 106e 0895      		ret
 3559               	.LFE76:
 3561               	.global	Timebase_ISR_Executables
 3563               	Timebase_ISR_Executables:
 3564               	.LFB77:
 3565               	.LM358:
 3566 1070 CF93      		push r28
 3567 1072 DF93      		push r29
 3568               	/* prologue: function */
 3569               	/* frame size = 0 */
 3570               	.LM359:
 3571 1074 C091 0000 		lds r28,Timebase
 3572 1078 D091 0000 		lds r29,(Timebase)+1
 3573 107c 8F81      		ldd r24,Y+7
 3574 107e 9885      		ldd r25,Y+8
 3575 1080 A985      		ldd r26,Y+9
 3576 1082 BA85      		ldd r27,Y+10
 3577 1084 0196      		adiw r24,1
 3578 1086 A11D      		adc r26,__zero_reg__
 3579 1088 B11D      		adc r27,__zero_reg__
 3580 108a 8F83      		std Y+7,r24
 3581 108c 9887      		std Y+8,r25
 3582 108e A987      		std Y+9,r26
 3583 1090 BA87      		std Y+10,r27
 3584               	.LM360:
 3585 1092 6F81      		ldd r22,Y+7
 3586 1094 7885      		ldd r23,Y+8
 3587 1096 8985      		ldd r24,Y+9
 3588 1098 9A85      		ldd r25,Y+10
 3589 109a 2981      		ldd r18,Y+1
 3590 109c 3A81      		ldd r19,Y+2
 3591 109e 40E0      		ldi r20,lo8(0)
 3592 10a0 50E0      		ldi r21,hi8(0)
 3593 10a2 0E94 0000 		call __udivmodsi4
 3594 10a6 6115      		cp r22,__zero_reg__
 3595 10a8 7105      		cpc r23,__zero_reg__
 3596 10aa 8105      		cpc r24,__zero_reg__
 3597 10ac 9105      		cpc r25,__zero_reg__
 3598 10ae 01F4      		brne .L193
 3599               	.LM361:
 3600 10b0 8B85      		ldd r24,Y+11
 3601 10b2 9C85      		ldd r25,Y+12
 3602 10b4 AD85      		ldd r26,Y+13
 3603 10b6 BE85      		ldd r27,Y+14
 3604 10b8 0196      		adiw r24,1
 3605 10ba A11D      		adc r26,__zero_reg__
 3606 10bc B11D      		adc r27,__zero_reg__
 3607 10be 8B87      		std Y+11,r24
 3608 10c0 9C87      		std Y+12,r25
 3609 10c2 AD87      		std Y+13,r26
 3610 10c4 BE87      		std Y+14,r27
 3611               	.LM362:
 3612 10c6 81E0      		ldi r24,lo8(1)
 3613 10c8 8AAB      		std Y+50,r24
 3614               	.LBB470:
 3615               	.LBB471:
 3616               	.LM363:
 3617 10ca 8F85      		ldd r24,Y+15
 3618               	.LBE471:
 3619               	.LBE470:
 3620               	.LM364:
 3621 10cc 8823      		tst r24
 3622 10ce 01F4      		brne .L193
 3623               	.LM365:
 3624 10d0 1F82      		std Y+7,__zero_reg__
 3625 10d2 1886      		std Y+8,__zero_reg__
 3626 10d4 1986      		std Y+9,__zero_reg__
 3627 10d6 1A86      		std Y+10,__zero_reg__
 3628               	.L193:
 3629               	/* epilogue start */
 3630               	.LM366:
 3631 10d8 DF91      		pop r29
 3632 10da CF91      		pop r28
 3633 10dc 0895      		ret
 3634               	.LFE77:
 3636               	.global	__vector_14
 3638               	__vector_14:
 3639               	.LFB78:
 3640               	.LM367:
 3641 10de 1F92      		push __zero_reg__
 3642 10e0 0F92      		push r0
 3643 10e2 0FB6      		in r0,__SREG__
 3644 10e4 0F92      		push r0
 3645 10e6 1124      		clr __zero_reg__
 3646 10e8 2F93      		push r18
 3647 10ea 3F93      		push r19
 3648 10ec 4F93      		push r20
 3649 10ee 5F93      		push r21
 3650 10f0 6F93      		push r22
 3651 10f2 7F93      		push r23
 3652 10f4 8F93      		push r24
 3653 10f6 9F93      		push r25
 3654 10f8 AF93      		push r26
 3655 10fa BF93      		push r27
 3656 10fc EF93      		push r30
 3657 10fe FF93      		push r31
 3658               	/* prologue: Signal */
 3659               	/* frame size = 0 */
 3660               	.LM368:
 3661 1100 0E94 0000 		call Timebase_ISR_Executables
 3662               	/* epilogue start */
 3663               	.LM369:
 3664 1104 FF91      		pop r31
 3665 1106 EF91      		pop r30
 3666 1108 BF91      		pop r27
 3667 110a AF91      		pop r26
 3668 110c 9F91      		pop r25
 3669 110e 8F91      		pop r24
 3670 1110 7F91      		pop r23
 3671 1112 6F91      		pop r22
 3672 1114 5F91      		pop r21
 3673 1116 4F91      		pop r20
 3674 1118 3F91      		pop r19
 3675 111a 2F91      		pop r18
 3676 111c 0F90      		pop r0
 3677 111e 0FBE      		out __SREG__,r0
 3678 1120 0F90      		pop r0
 3679 1122 1F90      		pop __zero_reg__
 3680 1124 1895      		reti
 3681               	.LFE78:
 3683               		.comm Timebase_type,51,1
 3684               		.comm Timebase,2,1
 4285               	.Letext0:
DEFINED SYMBOLS
                            *ABS*:00000000 timebase.c
C:\Users\WALTON\AppData\Local\Temp/ccCJRaXM.s:2      *ABS*:0000003f __SREG__
C:\Users\WALTON\AppData\Local\Temp/ccCJRaXM.s:3      *ABS*:0000003e __SP_H__
C:\Users\WALTON\AppData\Local\Temp/ccCJRaXM.s:4      *ABS*:0000003d __SP_L__
C:\Users\WALTON\AppData\Local\Temp/ccCJRaXM.s:5      *ABS*:00000034 __CCP__
C:\Users\WALTON\AppData\Local\Temp/ccCJRaXM.s:6      *ABS*:00000000 __tmp_reg__
C:\Users\WALTON\AppData\Local\Temp/ccCJRaXM.s:7      *ABS*:00000001 __zero_reg__
C:\Users\WALTON\AppData\Local\Temp/ccCJRaXM.s:18     .text:00000000 Timebase_Struct_Init
                            *COM*:00000033 Timebase_type
                            *COM*:00000002 Timebase
C:\Users\WALTON\AppData\Local\Temp/ccCJRaXM.s:117    .text:000000f2 Timebase_Timer_Config
C:\Users\WALTON\AppData\Local\Temp/ccCJRaXM.s:264    .text:00000194 Timebase_Token_Executing
C:\Users\WALTON\AppData\Local\Temp/ccCJRaXM.s:280    .text:000001a0 Timebase_Token_Add
C:\Users\WALTON\AppData\Local\Temp/ccCJRaXM.s:306    .text:000001b6 Timebase_Token_Remove
C:\Users\WALTON\AppData\Local\Temp/ccCJRaXM.s:332    .text:000001cc Timebase_Token_Remove_All
C:\Users\WALTON\AppData\Local\Temp/ccCJRaXM.s:348    .text:000001d8 Timebase_Timer_Get_SubSeconds
C:\Users\WALTON\AppData\Local\Temp/ccCJRaXM.s:369    .text:000001ee Timebase_Timer_Get_Seconds
C:\Users\WALTON\AppData\Local\Temp/ccCJRaXM.s:390    .text:00000204 Timebase_Timer_Set_SubSeconds
C:\Users\WALTON\AppData\Local\Temp/ccCJRaXM.s:410    .text:00000216 Timebase_Timer_Set_Seconds
C:\Users\WALTON\AppData\Local\Temp/ccCJRaXM.s:430    .text:00000228 Timebase_Timer_Delay_SubSeconds
C:\Users\WALTON\AppData\Local\Temp/ccCJRaXM.s:515    .text:00000272 Timebase_Timer_Delay_Seconds
C:\Users\WALTON\AppData\Local\Temp/ccCJRaXM.s:577    .text:000002b4 Timebase_UpCounter_Get_Status
C:\Users\WALTON\AppData\Local\Temp/ccCJRaXM.s:611    .text:000002de Timebase_UpCounter_Set_Status
C:\Users\WALTON\AppData\Local\Temp/ccCJRaXM.s:649    .text:0000030e Timebase_UpCounter_Get_Value
C:\Users\WALTON\AppData\Local\Temp/ccCJRaXM.s:692    .text:00000348 Timebase_UpCounter_Set_Value
C:\Users\WALTON\AppData\Local\Temp/ccCJRaXM.s:727    .text:00000374 Timebase_UpCounter_Get_EndValue
C:\Users\WALTON\AppData\Local\Temp/ccCJRaXM.s:770    .text:000003ae Timebase_UpCounter_Set_EndValue
C:\Users\WALTON\AppData\Local\Temp/ccCJRaXM.s:805    .text:000003da Timebase_UpCounter_Get_TargetValue
C:\Users\WALTON\AppData\Local\Temp/ccCJRaXM.s:843    .text:00000408 Timebase_UpCounter_Set_TargetValue
C:\Users\WALTON\AppData\Local\Temp/ccCJRaXM.s:880    .text:00000436 Timebase_UpCounter_Get_TemporaryValue
C:\Users\WALTON\AppData\Local\Temp/ccCJRaXM.s:923    .text:00000470 Timebase_UpCounter_Set_TemporaryValue
C:\Users\WALTON\AppData\Local\Temp/ccCJRaXM.s:958    .text:0000049c Timebase_UpCounter_Get_PeriodValue
C:\Users\WALTON\AppData\Local\Temp/ccCJRaXM.s:1001   .text:000004d6 Timebase_UpCounter_Set_PeriodValue
C:\Users\WALTON\AppData\Local\Temp/ccCJRaXM.s:1036   .text:00000502 Timebase_UpCounter_Get_Period_Flag
C:\Users\WALTON\AppData\Local\Temp/ccCJRaXM.s:1069   .text:0000052a Timebase_UpCounter_Set_Period_Flag
C:\Users\WALTON\AppData\Local\Temp/ccCJRaXM.s:1103   .text:00000554 Timebase_UpCounter_Clear_Period_Flag
C:\Users\WALTON\AppData\Local\Temp/ccCJRaXM.s:1137   .text:0000057e Timebase_UpCounter_Reset
C:\Users\WALTON\AppData\Local\Temp/ccCJRaXM.s:1238   .text:000005ec Timebase_UpCounter_Clear_All_Flags
C:\Users\WALTON\AppData\Local\Temp/ccCJRaXM.s:1254   .text:000005f2 Timebase_UpCounter_Start
C:\Users\WALTON\AppData\Local\Temp/ccCJRaXM.s:1302   .text:00000628 Timebase_UpCounter_Stop
C:\Users\WALTON\AppData\Local\Temp/ccCJRaXM.s:1350   .text:0000065e Timebase_UpCounter_Set_Securely
C:\Users\WALTON\AppData\Local\Temp/ccCJRaXM.s:1479   .text:000006f6 Timebase_UpCounter_Set_Forcefully
C:\Users\WALTON\AppData\Local\Temp/ccCJRaXM.s:1515   .text:00000720 Timebase_UpCounter_Update
C:\Users\WALTON\AppData\Local\Temp/ccCJRaXM.s:1727   .text:00000838 Timebase_UpCounter_Expired
C:\Users\WALTON\AppData\Local\Temp/ccCJRaXM.s:1767   .text:0000086c Timebase_UpCounter_Expired_Event
C:\Users\WALTON\AppData\Local\Temp/ccCJRaXM.s:1816   .text:000008aa Timebase_UpCounter_Set_Period_Value_Securely
C:\Users\WALTON\AppData\Local\Temp/ccCJRaXM.s:1878   .text:000008f2 Timebase_UpCounter_Get_Remaining_Period_Value
C:\Users\WALTON\AppData\Local\Temp/ccCJRaXM.s:1936   .text:0000093e Timebase_UpCounter_Period_Value_Expired
C:\Users\WALTON\AppData\Local\Temp/ccCJRaXM.s:2028   .text:000009ba Timebase_UpCounter_Period_Value_Expired_Event
C:\Users\WALTON\AppData\Local\Temp/ccCJRaXM.s:2080   .text:000009fa Timebase_UpCounter_Update_All
C:\Users\WALTON\AppData\Local\Temp/ccCJRaXM.s:2097   .text:00000a02 Timebase_UpCounter_Reset_All
C:\Users\WALTON\AppData\Local\Temp/ccCJRaXM.s:2114   .text:00000a0a Timebase_DownCounter_Get_Status
C:\Users\WALTON\AppData\Local\Temp/ccCJRaXM.s:2148   .text:00000a34 Timebase_DownCounter_Set_Status
C:\Users\WALTON\AppData\Local\Temp/ccCJRaXM.s:2186   .text:00000a64 Timebase_DownCounter_Get_Value
C:\Users\WALTON\AppData\Local\Temp/ccCJRaXM.s:2229   .text:00000a9e Timebase_DownCounter_Set_Value
C:\Users\WALTON\AppData\Local\Temp/ccCJRaXM.s:2264   .text:00000aca Timebase_DownCounter_Get_EndValue
C:\Users\WALTON\AppData\Local\Temp/ccCJRaXM.s:2307   .text:00000b04 Timebase_DownCounter_Set_EndValue
C:\Users\WALTON\AppData\Local\Temp/ccCJRaXM.s:2342   .text:00000b30 Timebase_DownCounter_Get_PeriodValue
C:\Users\WALTON\AppData\Local\Temp/ccCJRaXM.s:2385   .text:00000b6a Timebase_DownCounter_Set_PeriodValue
C:\Users\WALTON\AppData\Local\Temp/ccCJRaXM.s:2420   .text:00000b96 Timebase_DownCounter_Get_Period_Flag
C:\Users\WALTON\AppData\Local\Temp/ccCJRaXM.s:2453   .text:00000bbe Timebase_DownCounter_Set_Period_Flag
C:\Users\WALTON\AppData\Local\Temp/ccCJRaXM.s:2487   .text:00000be8 Timebase_DownCounter_Clear_Period_Flag
C:\Users\WALTON\AppData\Local\Temp/ccCJRaXM.s:2521   .text:00000c12 Timebase_DownCounter_Reset
C:\Users\WALTON\AppData\Local\Temp/ccCJRaXM.s:2581   .text:00000c4c Timebase_DownCounter_Clear_All_Flags
C:\Users\WALTON\AppData\Local\Temp/ccCJRaXM.s:2645   .text:00000c86 Timebase_DownCounter_Start
C:\Users\WALTON\AppData\Local\Temp/ccCJRaXM.s:2693   .text:00000cbc Timebase_DownCounter_Stop
C:\Users\WALTON\AppData\Local\Temp/ccCJRaXM.s:2741   .text:00000cf2 Timebase_DownCounter_Set_Securely
C:\Users\WALTON\AppData\Local\Temp/ccCJRaXM.s:2830   .text:00000d52 Timebase_DownCounter_Set_Forcefully
C:\Users\WALTON\AppData\Local\Temp/ccCJRaXM.s:2901   .text:00000d9a Timebase_DownCounter_Update
C:\Users\WALTON\AppData\Local\Temp/ccCJRaXM.s:3041   .text:00000e34 Timebase_DownCounter_Expired
C:\Users\WALTON\AppData\Local\Temp/ccCJRaXM.s:3081   .text:00000e68 Timebase_DownCounter_Expired_Event
C:\Users\WALTON\AppData\Local\Temp/ccCJRaXM.s:3163   .text:00000eb2 Timebase_DownCounter_Set_Period_Value_Securely
C:\Users\WALTON\AppData\Local\Temp/ccCJRaXM.s:3225   .text:00000efa Timebase_DownCounter_Get_Remaining_Period_Value
C:\Users\WALTON\AppData\Local\Temp/ccCJRaXM.s:3283   .text:00000f46 Timebase_DownCounter_Period_Value_Expired
C:\Users\WALTON\AppData\Local\Temp/ccCJRaXM.s:3375   .text:00000fc2 Timebase_DownCounter_Period_Value_Expired_Event
C:\Users\WALTON\AppData\Local\Temp/ccCJRaXM.s:3427   .text:00001002 Timebase_DownCounter_Update_All
C:\Users\WALTON\AppData\Local\Temp/ccCJRaXM.s:3444   .text:0000100a Timebase_DownCounter_Reset_All
C:\Users\WALTON\AppData\Local\Temp/ccCJRaXM.s:3495   .text:0000102a Timebase_Reset
C:\Users\WALTON\AppData\Local\Temp/ccCJRaXM.s:3511   .text:00001034 Timebase_Init
C:\Users\WALTON\AppData\Local\Temp/ccCJRaXM.s:3538   .text:0000104e Timebase_Main_Loop_Executables
C:\Users\WALTON\AppData\Local\Temp/ccCJRaXM.s:3563   .text:00001070 Timebase_ISR_Executables
C:\Users\WALTON\AppData\Local\Temp/ccCJRaXM.s:3638   .text:000010de __vector_14

UNDEFINED SYMBOLS
__udivmodsi4
__do_clear_bss
