   1               		.file	"uart.c"
   2               	__SREG__ = 0x3f
   3               	__SP_H__ = 0x3e
   4               	__SP_L__ = 0x3d
   5               	__CCP__  = 0x34
   6               	__tmp_reg__ = 0
   7               	__zero_reg__ = 1
  15               	.Ltext0:
  16               	.global	UART_Config_GPIO
  18               	UART_Config_GPIO:
  19               	.LFB6:
  20               	.LM1:
  21               	/* prologue: function */
  22               	/* frame size = 0 */
  23               	/* epilogue start */
  24               	.LM2:
  25 0000 0895      		ret
  26               	.LFE6:
  28               	.global	UART_Config_Clock
  30               	UART_Config_Clock:
  31               	.LFB7:
  32               	.LM3:
  33               	/* prologue: function */
  34               	/* frame size = 0 */
  35               	/* epilogue start */
  36               	.LM4:
  37 0002 0895      		ret
  38               	.LFE7:
  40               	.global	UART_Config_BAUD_Rate
  42               	UART_Config_BAUD_Rate:
  43               	.LFB8:
  44               	.LM5:
  45               	.LVL0:
  46               	/* prologue: function */
  47               	/* frame size = 0 */
  48 0004 9B01      		movw r18,r22
  49 0006 AC01      		movw r20,r24
  50               	.LM6:
  51 0008 60E4      		ldi r22,lo8(1000000)
  52 000a 72E4      		ldi r23,hi8(1000000)
  53 000c 8FE0      		ldi r24,hlo8(1000000)
  54 000e 90E0      		ldi r25,hhi8(1000000)
  55               	.LVL1:
  56 0010 0E94 0000 		call __udivmodsi4
  57               	.LVL2:
  58 0014 2150      		subi r18,lo8(-(-1))
  59 0016 3040      		sbci r19,hi8(-(-1))
  60 0018 4040      		sbci r20,hlo8(-(-1))
  61 001a 5040      		sbci r21,hhi8(-(-1))
  62               	.LVL3:
  63               	.LM7:
  64 001c E0EC      		ldi r30,lo8(192)
  65 001e F0E0      		ldi r31,hi8(192)
  66 0020 8081      		ld r24,Z
  67 0022 8260      		ori r24,lo8(2)
  68 0024 8083      		st Z,r24
  69               	.LM8:
  70 0026 BB27      		clr r27
  71 0028 A52F      		mov r26,r21
  72 002a 942F      		mov r25,r20
  73 002c 832F      		mov r24,r19
  74 002e 8093 C500 		sts 197,r24
  75               	.LM9:
  76 0032 2093 C400 		sts 196,r18
  77               	/* epilogue start */
  78               	.LM10:
  79 0036 0895      		ret
  80               	.LFE8:
  82               	.global	UART_Config_Transmitter
  84               	UART_Config_Transmitter:
  85               	.LFB9:
  86               	.LM11:
  87               	/* prologue: function */
  88               	/* frame size = 0 */
  89               	.LM12:
  90 0038 E1EC      		ldi r30,lo8(193)
  91 003a F0E0      		ldi r31,hi8(193)
  92 003c 8081      		ld r24,Z
  93 003e 8860      		ori r24,lo8(8)
  94 0040 8083      		st Z,r24
  95               	.LM13:
  96 0042 86E0      		ldi r24,lo8(6)
  97 0044 8093 C200 		sts 194,r24
  98               	/* epilogue start */
  99               	.LM14:
 100 0048 0895      		ret
 101               	.LFE9:
 103               	.global	UART_Config_Receiver
 105               	UART_Config_Receiver:
 106               	.LFB10:
 107               	.LM15:
 108               	/* prologue: function */
 109               	/* frame size = 0 */
 110               	.LM16:
 111 004a E1EC      		ldi r30,lo8(193)
 112 004c F0E0      		ldi r31,hi8(193)
 113 004e 8081      		ld r24,Z
 114 0050 8061      		ori r24,lo8(16)
 115 0052 8083      		st Z,r24
 116               	.LM17:
 117 0054 86E0      		ldi r24,lo8(6)
 118 0056 8093 C200 		sts 194,r24
 119               	/* epilogue start */
 120               	.LM18:
 121 005a 0895      		ret
 122               	.LFE10:
 124               	.global	UART_Config_Receiver_Interrupt
 126               	UART_Config_Receiver_Interrupt:
 127               	.LFB11:
 128               	.LM19:
 129               	/* prologue: function */
 130               	/* frame size = 0 */
 131               	.LM20:
 132 005c E1EC      		ldi r30,lo8(193)
 133 005e F0E0      		ldi r31,hi8(193)
 134 0060 8081      		ld r24,Z
 135 0062 8068      		ori r24,lo8(-128)
 136 0064 8083      		st Z,r24
 137               	.LM21:
 138               	/* #APP */
 139               	 ;  86 "uart.c" 1
 140 0066 7894      		sei
 141               	 ;  0 "" 2
 142               	/* epilogue start */
 143               	.LM22:
 144               	/* #NOAPP */
 145 0068 0895      		ret
 146               	.LFE11:
 148               	.global	UART_Transmit_Byte
 150               	UART_Transmit_Byte:
 151               	.LFB12:
 152               	.LM23:
 153               	.LVL4:
 154               	/* prologue: function */
 155               	/* frame size = 0 */
 156 006a 982F      		mov r25,r24
 157               	.LVL5:
 158               	.L14:
 159               	.LM24:
 160 006c 8091 C000 		lds r24,192
 161 0070 85FF      		sbrs r24,5
 162 0072 00C0      		rjmp .L14
 163               	.LM25:
 164 0074 9093 C600 		sts 198,r25
 165               	/* epilogue start */
 166               	.LM26:
 167 0078 0895      		ret
 168               	.LFE12:
 170               	.global	UART_Receive_Byte
 172               	UART_Receive_Byte:
 173               	.LFB13:
 174               	.LM27:
 175 007a DF93      		push r29
 176 007c CF93      		push r28
 177 007e 0F92      		push __tmp_reg__
 178 0080 CDB7      		in r28,__SP_L__
 179 0082 DEB7      		in r29,__SP_H__
 180               	/* prologue: function */
 181               	/* frame size = 1 */
 182               	.LM28:
 183 0084 1982      		std Y+1,__zero_reg__
 184               	.LVL6:
 185               	.LM29:
 186 0086 8091 C000 		lds r24,192
 187 008a 84FF      		sbrs r24,4
 188 008c 00C0      		rjmp .L18
 189               	.LM30:
 190 008e 8091 C600 		lds r24,198
 191               	.LVL7:
 192 0092 8983      		std Y+1,r24
 193               	.LM31:
 194 0094 81E0      		ldi r24,lo8(1)
 195               	.LVL8:
 196 0096 00C0      		rjmp .L22
 197               	.L18:
 198               	.LM32:
 199 0098 8091 C000 		lds r24,192
 200 009c 83FF      		sbrs r24,3
 201 009e 00C0      		rjmp .L20
 202               	.LM33:
 203 00a0 8091 C600 		lds r24,198
 204               	.LVL9:
 205 00a4 8983      		std Y+1,r24
 206               	.LM34:
 207 00a6 82E0      		ldi r24,lo8(2)
 208               	.LVL10:
 209               	.L22:
 210 00a8 8093 0000 		sts UART,r24
 211 00ac 00C0      		rjmp .L19
 212               	.L20:
 213               	.LM35:
 214 00ae 8091 C600 		lds r24,198
 215               	.LVL11:
 216 00b2 8983      		std Y+1,r24
 217               	.LM36:
 218 00b4 1092 0000 		sts UART,__zero_reg__
 219               	.LVL12:
 220               	.L19:
 221               	.LM37:
 222 00b8 8981      		ldd r24,Y+1
 223               	/* epilogue start */
 224               	.LM38:
 225 00ba 0F90      		pop __tmp_reg__
 226 00bc CF91      		pop r28
 227 00be DF91      		pop r29
 228 00c0 0895      		ret
 229               	.LFE13:
 231               	.global	UART_Struct_Init
 233               	UART_Struct_Init:
 234               	.LFB14:
 235               	.LM39:
 236               	/* prologue: function */
 237               	/* frame size = 0 */
 238               	.LM40:
 239 00c2 1092 0000 		sts UART,__zero_reg__
 240 00c6 E0E0      		ldi r30,lo8(UART+1)
 241 00c8 F0E0      		ldi r31,hi8(UART+1)
 242               	.L24:
 243               	.LBB59:
 244               	.LM41:
 245 00ca 1192      		st Z+,__zero_reg__
 246               	.LM42:
 247 00cc 80E0      		ldi r24,hi8(UART+9)
 248 00ce E030      		cpi r30,lo8(UART+9)
 249 00d0 F807      		cpc r31,r24
 250 00d2 01F4      		brne .L24
 251               	.LBE59:
 252               	.LM43:
 253 00d4 1082      		st Z,__zero_reg__
 254               	.LM44:
 255 00d6 80E2      		ldi r24,lo8(32)
 256 00d8 90E0      		ldi r25,hi8(32)
 257 00da 92A3      		std Z+34,r25
 258 00dc 81A3      		std Z+33,r24
 259               	.LM45:
 260 00de 14A2      		std Z+36,__zero_reg__
 261 00e0 13A2      		std Z+35,__zero_reg__
 262 00e2 20E0      		ldi r18,lo8(0)
 263               	.LVL13:
 264 00e4 00C0      		rjmp .L25
 265               	.LVL14:
 266               	.L26:
 267               	.LBB60:
 268               	.LM46:
 269 00e6 E050      		subi r30,lo8(-(UART))
 270 00e8 F040      		sbci r31,hi8(-(UART))
 271               	.LVL15:
 272 00ea 1286      		std Z+10,__zero_reg__
 273               	.LM47:
 274 00ec 2F5F      		subi r18,lo8(-(1))
 275               	.LVL16:
 276               	.L25:
 277 00ee 8091 0000 		lds r24,UART+42
 278 00f2 9091 0000 		lds r25,(UART+42)+1
 279 00f6 E22F      		mov r30,r18
 280 00f8 F0E0      		ldi r31,lo8(0)
 281 00fa E817      		cp r30,r24
 282 00fc F907      		cpc r31,r25
 283 00fe 00F0      		brlo .L26
 284               	.LVL17:
 285               	.LBE60:
 286               	.LM48:
 287 0100 1092 0000 		sts (UART+46)+1,__zero_reg__
 288 0104 1092 0000 		sts UART+46,__zero_reg__
 289               	.LM49:
 290 0108 1092 0000 		sts (UART+48)+1,__zero_reg__
 291 010c 1092 0000 		sts UART+48,__zero_reg__
 292               	/* epilogue start */
 293               	.LM50:
 294 0110 0895      		ret
 295               	.LFE14:
 297               	.global	UART_Transmit_Byte_Hex
 299               	UART_Transmit_Byte_Hex:
 300               	.LFB15:
 301               	.LM51:
 302               	.LVL18:
 303 0112 1F93      		push r17
 304 0114 CF93      		push r28
 305 0116 DF93      		push r29
 306               	/* prologue: function */
 307               	/* frame size = 0 */
 308 0118 AB01      		movw r20,r22
 309 011a BC01      		movw r22,r24
 310               	.LM52:
 311 011c 4F3F      		cpi r20,lo8(255)
 312 011e 5105      		cpc r21,__zero_reg__
 313 0120 6105      		cpc r22,__zero_reg__
 314 0122 7105      		cpc r23,__zero_reg__
 315 0124 01F0      		breq .+2
 316 0126 00F4      		brsh .L30
 317               	.LVL19:
 318 0128 E8E0      		ldi r30,lo8(8)
 319 012a F0E0      		ldi r31,hi8(8)
 320               	.LVL20:
 321 012c C2E0      		ldi r28,lo8(2)
 322 012e D0E0      		ldi r29,hi8(2)
 323               	.LVL21:
 324 0130 00C0      		rjmp .L40
 325               	.LVL22:
 326               	.L30:
 327               	.LM53:
 328 0132 4030      		cpi r20,lo8(65536)
 329 0134 80E0      		ldi r24,hi8(65536)
 330 0136 5807      		cpc r21,r24
 331 0138 81E0      		ldi r24,hlo8(65536)
 332 013a 6807      		cpc r22,r24
 333 013c 80E0      		ldi r24,hhi8(65536)
 334 013e 7807      		cpc r23,r24
 335 0140 00F0      		brlo .L32
 336 0142 E0E2      		ldi r30,lo8(32)
 337 0144 F0E0      		ldi r31,hi8(32)
 338               	.LVL23:
 339 0146 C8E0      		ldi r28,lo8(8)
 340 0148 D0E0      		ldi r29,hi8(8)
 341               	.LVL24:
 342 014a 00C0      		rjmp .L40
 343               	.LVL25:
 344               	.L32:
 345 014c E0E1      		ldi r30,lo8(16)
 346 014e F0E0      		ldi r31,hi8(16)
 347               	.LVL26:
 348 0150 C4E0      		ldi r28,lo8(4)
 349 0152 D0E0      		ldi r29,hi8(4)
 350               	.LVL27:
 351               	.L40:
 352               	.LBB61:
 353               	.LBB62:
 354               	.LM54:
 355 0154 8091 C000 		lds r24,192
 356 0158 85FF      		sbrs r24,5
 357 015a 00C0      		rjmp .L40
 358               	.LM55:
 359 015c 80E3      		ldi r24,lo8(48)
 360 015e 8093 C600 		sts 198,r24
 361               	.L33:
 362               	.LBE62:
 363               	.LBE61:
 364               	.LBB63:
 365               	.LBB64:
 366               	.LM56:
 367 0162 8091 C000 		lds r24,192
 368 0166 85FF      		sbrs r24,5
 369 0168 00C0      		rjmp .L33
 370               	.LM57:
 371 016a 88E7      		ldi r24,lo8(120)
 372 016c 8093 C600 		sts 198,r24
 373 0170 10E0      		ldi r17,lo8(0)
 374               	.LVL28:
 375 0172 00C0      		rjmp .L34
 376               	.LVL29:
 377               	.L37:
 378               	.LBE64:
 379               	.LBE63:
 380               	.LBB65:
 381               	.LM58:
 382 0174 3497      		sbiw r30,4
 383               	.LM59:
 384 0176 DB01      		movw r26,r22
 385 0178 CA01      		movw r24,r20
 386               	.LVL30:
 387 017a 0E2E      		mov r0,r30
 388 017c 00C0      		rjmp 2f
 389 017e B695      	1:	lsr r27
 390 0180 A795      		ror r26
 391 0182 9795      		ror r25
 392 0184 8795      		ror r24
 393 0186 0A94      	2:	dec r0
 394 0188 02F4      		brpl 1b
 395 018a 90E0      		ldi r25,lo8(0)
 396               	.LVL31:
 397 018c 8F70      		andi r24,lo8(15)
 398 018e 9070      		andi r25,hi8(15)
 399               	.LVL32:
 400               	.LM60:
 401 0190 8A30      		cpi r24,10
 402 0192 9105      		cpc r25,__zero_reg__
 403 0194 00F0      		brlo .L35
 404               	.LM61:
 405 0196 9C01      		movw r18,r24
 406 0198 295C      		subi r18,lo8(-(55))
 407 019a 3F4F      		sbci r19,hi8(-(55))
 408               	.LVL33:
 409 019c 00C0      		rjmp .L39
 410               	.LVL34:
 411               	.L35:
 412               	.LM62:
 413 019e 9C01      		movw r18,r24
 414 01a0 205D      		subi r18,lo8(-(48))
 415 01a2 3F4F      		sbci r19,hi8(-(48))
 416               	.LVL35:
 417               	.L39:
 418               	.LBB66:
 419               	.LBB67:
 420               	.LM63:
 421 01a4 8091 C000 		lds r24,192
 422 01a8 85FF      		sbrs r24,5
 423 01aa 00C0      		rjmp .L39
 424               	.LM64:
 425 01ac 2093 C600 		sts 198,r18
 426               	.LBE67:
 427               	.LBE66:
 428               	.LM65:
 429 01b0 1F5F      		subi r17,lo8(-(1))
 430               	.L34:
 431 01b2 812F      		mov r24,r17
 432 01b4 90E0      		ldi r25,lo8(0)
 433               	.LVL36:
 434 01b6 8C17      		cp r24,r28
 435 01b8 9D07      		cpc r25,r29
 436 01ba 00F0      		brlo .L37
 437               	.LVL37:
 438               	/* epilogue start */
 439               	.LBE65:
 440               	.LM66:
 441 01bc DF91      		pop r29
 442 01be CF91      		pop r28
 443               	.LVL38:
 444 01c0 1F91      		pop r17
 445 01c2 0895      		ret
 446               	.LFE15:
 448               	.global	UART_Transmit_Byte_Bin
 450               	UART_Transmit_Byte_Bin:
 451               	.LFB16:
 452               	.LM67:
 453               	.LVL39:
 454 01c4 CF92      		push r12
 455 01c6 DF92      		push r13
 456 01c8 EF92      		push r14
 457 01ca FF92      		push r15
 458 01cc 0F93      		push r16
 459 01ce 1F93      		push r17
 460 01d0 CF93      		push r28
 461 01d2 DF93      		push r29
 462               	/* prologue: function */
 463               	/* frame size = 0 */
 464 01d4 AB01      		movw r20,r22
 465 01d6 BC01      		movw r22,r24
 466               	.LM68:
 467 01d8 4F3F      		cpi r20,lo8(255)
 468 01da 5105      		cpc r21,__zero_reg__
 469 01dc 6105      		cpc r22,__zero_reg__
 470 01de 7105      		cpc r23,__zero_reg__
 471 01e0 01F0      		breq .+2
 472 01e2 00F4      		brsh .L45
 473               	.LVL40:
 474 01e4 97E0      		ldi r25,lo8(7)
 475               	.LVL41:
 476 01e6 00C0      		rjmp .L56
 477               	.LVL42:
 478               	.L45:
 479               	.LM69:
 480 01e8 4030      		cpi r20,lo8(65536)
 481 01ea 80E0      		ldi r24,hi8(65536)
 482 01ec 5807      		cpc r21,r24
 483 01ee 81E0      		ldi r24,hlo8(65536)
 484 01f0 6807      		cpc r22,r24
 485 01f2 80E0      		ldi r24,hhi8(65536)
 486 01f4 7807      		cpc r23,r24
 487 01f6 00F0      		brlo .L47
 488 01f8 9FE1      		ldi r25,lo8(31)
 489               	.LVL43:
 490 01fa 00C0      		rjmp .L56
 491               	.LVL44:
 492               	.L47:
 493 01fc 9FE0      		ldi r25,lo8(15)
 494               	.LVL45:
 495               	.L56:
 496               	.LBB68:
 497               	.LBB69:
 498               	.LM70:
 499 01fe 8091 C000 		lds r24,192
 500 0202 85FF      		sbrs r24,5
 501 0204 00C0      		rjmp .L56
 502               	.LM71:
 503 0206 80E3      		ldi r24,lo8(48)
 504 0208 8093 C600 		sts 198,r24
 505               	.L48:
 506               	.LBE69:
 507               	.LBE68:
 508               	.LBB70:
 509               	.LBB71:
 510               	.LM72:
 511 020c 8091 C000 		lds r24,192
 512 0210 85FF      		sbrs r24,5
 513 0212 00C0      		rjmp .L48
 514               	.LM73:
 515 0214 82E6      		ldi r24,lo8(98)
 516 0216 8093 C600 		sts 198,r24
 517 021a 20E0      		ldi r18,lo8(0)
 518 021c 30E0      		ldi r19,hi8(0)
 519               	.LM74:
 520 021e E92F      		mov r30,r25
 521 0220 F0E0      		ldi r31,lo8(0)
 522               	.LBE71:
 523               	.LBE70:
 524               	.LBB72:
 525               	.LBB73:
 526               	.LBB74:
 527               	.LM75:
 528 0222 00E3      		ldi r16,lo8(48)
 529               	.LBE74:
 530               	.LBE73:
 531               	.LBB76:
 532               	.LBB77:
 533 0224 11E3      		ldi r17,lo8(49)
 534               	.LBE77:
 535               	.LBE76:
 536               	.LM76:
 537 0226 EF01      		movw r28,r30
 538 0228 2196      		adiw r28,1
 539               	.L52:
 540               	.LM77:
 541 022a CF01      		movw r24,r30
 542 022c 821B      		sub r24,r18
 543 022e 930B      		sbc r25,r19
 544 0230 6A01      		movw r12,r20
 545 0232 7B01      		movw r14,r22
 546 0234 00C0      		rjmp 2f
 547 0236 F694      	1:	lsr r15
 548 0238 E794      		ror r14
 549 023a D794      		ror r13
 550 023c C794      		ror r12
 551 023e 8A95      	2:	dec r24
 552 0240 02F4      		brpl 1b
 553 0242 D701      		movw r26,r14
 554 0244 C601      		movw r24,r12
 555 0246 8170      		andi r24,lo8(1)
 556 0248 9070      		andi r25,hi8(1)
 557 024a 892B      		or r24,r25
 558 024c 01F0      		breq .L55
 559               	.L54:
 560               	.LBB79:
 561               	.LBB78:
 562               	.LM78:
 563 024e 8091 C000 		lds r24,192
 564 0252 85FF      		sbrs r24,5
 565 0254 00C0      		rjmp .L54
 566               	.LM79:
 567 0256 1093 C600 		sts 198,r17
 568 025a 00C0      		rjmp .L51
 569               	.L55:
 570               	.LBE78:
 571               	.LBE79:
 572               	.LBB80:
 573               	.LBB75:
 574               	.LM80:
 575 025c 8091 C000 		lds r24,192
 576 0260 85FF      		sbrs r24,5
 577 0262 00C0      		rjmp .L55
 578               	.LM81:
 579 0264 0093 C600 		sts 198,r16
 580               	.L51:
 581 0268 2F5F      		subi r18,lo8(-(1))
 582 026a 3F4F      		sbci r19,hi8(-(1))
 583               	.LBE75:
 584               	.LBE80:
 585               	.LM82:
 586 026c 2C17      		cp r18,r28
 587 026e 3D07      		cpc r19,r29
 588 0270 01F4      		brne .L52
 589               	/* epilogue start */
 590               	.LBE72:
 591               	.LM83:
 592 0272 DF91      		pop r29
 593 0274 CF91      		pop r28
 594 0276 1F91      		pop r17
 595 0278 0F91      		pop r16
 596 027a FF90      		pop r15
 597 027c EF90      		pop r14
 598 027e DF90      		pop r13
 599 0280 CF90      		pop r12
 600 0282 0895      		ret
 601               	.LFE16:
 603               	.global	UART_Transmit_New_Line
 605               	UART_Transmit_New_Line:
 606               	.LFB17:
 607               	.LM84:
 608               	/* prologue: function */
 609               	/* frame size = 0 */
 610               	.L63:
 611               	.LBB81:
 612               	.LBB82:
 613               	.LM85:
 614 0284 8091 C000 		lds r24,192
 615 0288 85FF      		sbrs r24,5
 616 028a 00C0      		rjmp .L63
 617               	.LM86:
 618 028c 8DE0      		ldi r24,lo8(13)
 619 028e 8093 C600 		sts 198,r24
 620               	.L64:
 621               	.LBE82:
 622               	.LBE81:
 623               	.LBB83:
 624               	.LBB84:
 625               	.LM87:
 626 0292 8091 C000 		lds r24,192
 627 0296 85FF      		sbrs r24,5
 628 0298 00C0      		rjmp .L64
 629               	.LM88:
 630 029a 8AE0      		ldi r24,lo8(10)
 631 029c 8093 C600 		sts 198,r24
 632               	/* epilogue start */
 633               	.LBE84:
 634               	.LBE83:
 635               	.LM89:
 636 02a0 0895      		ret
 637               	.LFE17:
 639               	.global	UART_Transmit_Space
 641               	UART_Transmit_Space:
 642               	.LFB18:
 643               	.LM90:
 644               	/* prologue: function */
 645               	/* frame size = 0 */
 646               	.L69:
 647               	.LBB85:
 648               	.LBB86:
 649               	.LM91:
 650 02a2 8091 C000 		lds r24,192
 651 02a6 85FF      		sbrs r24,5
 652 02a8 00C0      		rjmp .L69
 653               	.LM92:
 654 02aa 80E2      		ldi r24,lo8(32)
 655 02ac 8093 C600 		sts 198,r24
 656               	/* epilogue start */
 657               	.LBE86:
 658               	.LBE85:
 659               	.LM93:
 660 02b0 0895      		ret
 661               	.LFE18:
 663               	.global	UART_Transmit_Text
 665               	UART_Transmit_Text:
 666               	.LFB19:
 667               	.LM94:
 668               	.LVL46:
 669               	/* prologue: function */
 670               	/* frame size = 0 */
 671 02b2 AC01      		movw r20,r24
 672               	.LM95:
 673 02b4 20E0      		ldi r18,lo8(0)
 674               	.LVL47:
 675 02b6 00C0      		rjmp .L73
 676               	.LVL48:
 677               	.L76:
 678               	.LBB87:
 679               	.LBB88:
 680               	.LM96:
 681 02b8 8091 C000 		lds r24,192
 682 02bc 85FF      		sbrs r24,5
 683 02be 00C0      		rjmp .L76
 684               	.LM97:
 685 02c0 E093 C600 		sts 198,r30
 686               	.LBE88:
 687               	.LBE87:
 688               	.LM98:
 689 02c4 2F5F      		subi r18,lo8(-(1))
 690               	.LVL49:
 691               	.L73:
 692               	.LM99:
 693 02c6 FA01      		movw r30,r20
 694 02c8 E20F      		add r30,r18
 695 02ca F11D      		adc r31,__zero_reg__
 696 02cc E081      		ld r30,Z
 697 02ce EE23      		tst r30
 698 02d0 01F4      		brne .L76
 699               	/* epilogue start */
 700               	.LM100:
 701 02d2 0895      		ret
 702               	.LFE19:
 704               	.global	UART_Transmit_Text_NL
 706               	UART_Transmit_Text_NL:
 707               	.LFB20:
 708               	.LM101:
 709               	.LVL50:
 710               	/* prologue: function */
 711               	/* frame size = 0 */
 712               	.LM102:
 713 02d4 0E94 0000 		call UART_Transmit_Text
 714               	.LVL51:
 715               	.LM103:
 716 02d8 0E94 0000 		call UART_Transmit_New_Line
 717               	/* epilogue start */
 718               	.LM104:
 719 02dc 0895      		ret
 720               	.LFE20:
 722               	.global	UART_Determine_Digit_Numbers
 724               	UART_Determine_Digit_Numbers:
 725               	.LFB21:
 726               	.LM105:
 727               	.LVL52:
 728 02de BF92      		push r11
 729 02e0 CF92      		push r12
 730 02e2 DF92      		push r13
 731 02e4 EF92      		push r14
 732 02e6 FF92      		push r15
 733 02e8 0F93      		push r16
 734 02ea 1F93      		push r17
 735               	/* prologue: function */
 736               	/* frame size = 0 */
 737 02ec 6B01      		movw r12,r22
 738 02ee 7C01      		movw r14,r24
 739               	.LM106:
 740 02f0 6115      		cp r22,__zero_reg__
 741 02f2 7105      		cpc r23,__zero_reg__
 742 02f4 8105      		cpc r24,__zero_reg__
 743 02f6 9105      		cpc r25,__zero_reg__
 744 02f8 01F4      		brne .L81
 745               	.LM107:
 746 02fa 1092 0000 		sts UART+1,__zero_reg__
 747               	.LM108:
 748 02fe 81E0      		ldi r24,lo8(1)
 749 0300 8093 0000 		sts UART+9,r24
 750 0304 00C0      		rjmp .L84
 751               	.L81:
 752 0306 BB24      		clr r11
 753               	.LVL53:
 754               	.L83:
 755               	.LM109:
 756 0308 0B2D      		mov r16,r11
 757 030a 10E0      		ldi r17,lo8(0)
 758               	.LVL54:
 759 030c 0050      		subi r16,lo8(-(UART))
 760 030e 1040      		sbci r17,hi8(-(UART))
 761               	.LVL55:
 762 0310 C701      		movw r24,r14
 763 0312 B601      		movw r22,r12
 764               	.LVL56:
 765 0314 2AE0      		ldi r18,lo8(10)
 766 0316 30E0      		ldi r19,hi8(10)
 767 0318 40E0      		ldi r20,hlo8(10)
 768 031a 50E0      		ldi r21,hhi8(10)
 769 031c 0E94 0000 		call __udivmodsi4
 770 0320 F801      		movw r30,r16
 771 0322 6183      		std Z+1,r22
 772               	.LM110:
 773 0324 C701      		movw r24,r14
 774 0326 B601      		movw r22,r12
 775 0328 2AE0      		ldi r18,lo8(10)
 776 032a 30E0      		ldi r19,hi8(10)
 777 032c 40E0      		ldi r20,hlo8(10)
 778 032e 50E0      		ldi r21,hhi8(10)
 779 0330 0E94 0000 		call __udivmodsi4
 780 0334 C901      		movw r24,r18
 781 0336 DA01      		movw r26,r20
 782 0338 6C01      		movw r12,r24
 783 033a 7D01      		movw r14,r26
 784               	.LM111:
 785 033c B394      		inc r11
 786               	.LVL57:
 787               	.LM112:
 788 033e C114      		cp r12,__zero_reg__
 789 0340 D104      		cpc r13,__zero_reg__
 790 0342 E104      		cpc r14,__zero_reg__
 791 0344 F104      		cpc r15,__zero_reg__
 792 0346 01F4      		brne .L83
 793               	.LM113:
 794 0348 B092 0000 		sts UART+9,r11
 795               	.LVL58:
 796               	.L84:
 797               	/* epilogue start */
 798               	.LM114:
 799 034c 1F91      		pop r17
 800               	.LVL59:
 801 034e 0F91      		pop r16
 802 0350 FF90      		pop r15
 803 0352 EF90      		pop r14
 804 0354 DF90      		pop r13
 805 0356 CF90      		pop r12
 806               	.LVL60:
 807 0358 BF90      		pop r11
 808               	.LVL61:
 809 035a 0895      		ret
 810               	.LFE21:
 812               	.global	UART_Transmit_Number_Digits
 814               	UART_Transmit_Number_Digits:
 815               	.LFB22:
 816               	.LM115:
 817               	/* prologue: function */
 818               	/* frame size = 0 */
 819               	.LBB89:
 820               	.LM116:
 821 035c E091 0000 		lds r30,UART+9
 822               	.LVL62:
 823 0360 00C0      		rjmp .L87
 824               	.LVL63:
 825               	.L89:
 826               	.LBB90:
 827               	.LM117:
 828 0362 2E2F      		mov r18,r30
 829 0364 2150      		subi r18,lo8(-(-1))
 830               	.LM118:
 831 0366 E22F      		mov r30,r18
 832               	.LVL64:
 833 0368 F0E0      		ldi r31,lo8(0)
 834 036a E050      		subi r30,lo8(-(UART))
 835 036c F040      		sbci r31,hi8(-(UART))
 836 036e 9181      		ldd r25,Z+1
 837               	.LVL65:
 838               	.L88:
 839               	.LBB91:
 840               	.LBB92:
 841               	.LM119:
 842 0370 8091 C000 		lds r24,192
 843 0374 85FF      		sbrs r24,5
 844 0376 00C0      		rjmp .L88
 845               	.LBE92:
 846               	.LBE91:
 847               	.LM120:
 848 0378 905D      		subi r25,lo8(-(48))
 849               	.LBB94:
 850               	.LBB93:
 851               	.LM121:
 852 037a 9093 C600 		sts 198,r25
 853 037e E22F      		mov r30,r18
 854               	.LVL66:
 855               	.L87:
 856               	.LBE93:
 857               	.LBE94:
 858               	.LBE90:
 859               	.LM122:
 860 0380 EE23      		tst r30
 861 0382 01F4      		brne .L89
 862               	/* epilogue start */
 863               	.LBE89:
 864               	.LM123:
 865 0384 0895      		ret
 866               	.LFE22:
 868               	.global	UART_Transmit_Number
 870               	UART_Transmit_Number:
 871               	.LFB23:
 872               	.LM124:
 873               	.LVL67:
 874               	/* prologue: function */
 875               	/* frame size = 0 */
 876 0386 9B01      		movw r18,r22
 877 0388 AC01      		movw r20,r24
 878               	.LM125:
 879 038a 97FF      		sbrs r25,7
 880 038c 00C0      		rjmp .L93
 881               	.L96:
 882               	.LBB95:
 883               	.LBB96:
 884               	.LM126:
 885 038e 8091 C000 		lds r24,192
 886 0392 85FF      		sbrs r24,5
 887 0394 00C0      		rjmp .L96
 888               	.LM127:
 889 0396 8DE2      		ldi r24,lo8(45)
 890 0398 8093 C600 		sts 198,r24
 891               	.LBE96:
 892               	.LBE95:
 893               	.LM128:
 894 039c 5095      		com r21
 895 039e 4095      		com r20
 896 03a0 3095      		com r19
 897 03a2 2195      		neg r18
 898 03a4 3F4F      		sbci r19,lo8(-1)
 899 03a6 4F4F      		sbci r20,lo8(-1)
 900 03a8 5F4F      		sbci r21,lo8(-1)
 901               	.LVL68:
 902               	.L93:
 903               	.LM129:
 904 03aa CA01      		movw r24,r20
 905 03ac B901      		movw r22,r18
 906 03ae 0E94 0000 		call UART_Determine_Digit_Numbers
 907               	.LVL69:
 908               	.LM130:
 909 03b2 0E94 0000 		call UART_Transmit_Number_Digits
 910               	/* epilogue start */
 911               	.LM131:
 912 03b6 0895      		ret
 913               	.LFE23:
 915               	.global	UART_Transmit_Number_NL
 917               	UART_Transmit_Number_NL:
 918               	.LFB24:
 919               	.LM132:
 920               	.LVL70:
 921               	/* prologue: function */
 922               	/* frame size = 0 */
 923               	.LM133:
 924 03b8 0E94 0000 		call UART_Transmit_Number
 925               	.LVL71:
 926               	.LM134:
 927 03bc 0E94 0000 		call UART_Transmit_New_Line
 928               	/* epilogue start */
 929               	.LM135:
 930 03c0 0895      		ret
 931               	.LFE24:
 933               	.global	UART_Transmit_Number_SP
 935               	UART_Transmit_Number_SP:
 936               	.LFB25:
 937               	.LM136:
 938               	.LVL72:
 939               	/* prologue: function */
 940               	/* frame size = 0 */
 941               	.LM137:
 942 03c2 0E94 0000 		call UART_Transmit_Number
 943               	.LVL73:
 944               	.L101:
 945               	.LBB97:
 946               	.LBB98:
 947               	.LBB99:
 948               	.LBB100:
 949               	.LM138:
 950 03c6 8091 C000 		lds r24,192
 951 03ca 85FF      		sbrs r24,5
 952 03cc 00C0      		rjmp .L101
 953               	.LM139:
 954 03ce 80E2      		ldi r24,lo8(32)
 955 03d0 8093 C600 		sts 198,r24
 956               	/* epilogue start */
 957               	.LBE100:
 958               	.LBE99:
 959               	.LBE98:
 960               	.LBE97:
 961               	.LM140:
 962 03d4 0895      		ret
 963               	.LFE25:
 965               	.global	UART_Transmit_Fixed_Digit_Number
 967               	UART_Transmit_Fixed_Digit_Number:
 968               	.LFB26:
 969               	.LM141:
 970               	.LVL74:
 971 03d6 FF92      		push r15
 972 03d8 0F93      		push r16
 973 03da 1F93      		push r17
 974               	/* prologue: function */
 975               	/* frame size = 0 */
 976 03dc 8B01      		movw r16,r22
 977 03de 9C01      		movw r18,r24
 978 03e0 F42E      		mov r15,r20
 979               	.LM142:
 980 03e2 97FF      		sbrs r25,7
 981 03e4 00C0      		rjmp .L105
 982               	.LVL75:
 983               	.L111:
 984               	.LBB101:
 985               	.LBB102:
 986               	.LM143:
 987 03e6 8091 C000 		lds r24,192
 988 03ea 85FF      		sbrs r24,5
 989 03ec 00C0      		rjmp .L111
 990               	.LM144:
 991 03ee 8DE2      		ldi r24,lo8(45)
 992 03f0 8093 C600 		sts 198,r24
 993               	.LBE102:
 994               	.LBE101:
 995               	.LM145:
 996 03f4 3095      		com r19
 997 03f6 2095      		com r18
 998 03f8 1095      		com r17
 999 03fa 0195      		neg r16
 1000 03fc 1F4F      		sbci r17,lo8(-1)
 1001 03fe 2F4F      		sbci r18,lo8(-1)
 1002 0400 3F4F      		sbci r19,lo8(-1)
 1003               	.LVL76:
 1004               	.L105:
 1005               	.LM146:
 1006 0402 C901      		movw r24,r18
 1007 0404 B801      		movw r22,r16
 1008 0406 0E94 0000 		call UART_Determine_Digit_Numbers
 1009               	.LBB103:
 1010               	.LM147:
 1011 040a 4F2D      		mov r20,r15
 1012 040c 50E0      		ldi r21,lo8(0)
 1013 040e 8091 0000 		lds r24,UART+9
 1014 0412 481B      		sub r20,r24
 1015 0414 5109      		sbc r21,__zero_reg__
 1016 0416 20E0      		ldi r18,lo8(0)
 1017 0418 30E0      		ldi r19,hi8(0)
 1018               	.LVL77:
 1019               	.LBB104:
 1020               	.LBB105:
 1021               	.LM148:
 1022 041a 90E3      		ldi r25,lo8(48)
 1023 041c 00C0      		rjmp .L107
 1024               	.L110:
 1025               	.LM149:
 1026 041e 8091 C000 		lds r24,192
 1027 0422 85FF      		sbrs r24,5
 1028 0424 00C0      		rjmp .L110
 1029               	.LM150:
 1030 0426 9093 C600 		sts 198,r25
 1031               	.LBE105:
 1032               	.LBE104:
 1033               	.LM151:
 1034 042a 2F5F      		subi r18,lo8(-(1))
 1035 042c 3F4F      		sbci r19,hi8(-(1))
 1036               	.L107:
 1037 042e 2417      		cp r18,r20
 1038 0430 3507      		cpc r19,r21
 1039 0432 04F0      		brlt .L110
 1040               	.LBE103:
 1041               	.LM152:
 1042 0434 0E94 0000 		call UART_Transmit_Number_Digits
 1043               	.LVL78:
 1044               	/* epilogue start */
 1045               	.LM153:
 1046 0438 1F91      		pop r17
 1047 043a 0F91      		pop r16
 1048               	.LVL79:
 1049 043c FF90      		pop r15
 1050               	.LVL80:
 1051 043e 0895      		ret
 1052               	.LFE26:
 1054               		.data
 1055               	.LC0:
 1056 0000 2020 00   		.string	"  "
 1057               		.text
 1058               	.global	UART_Print_Debug_Data
 1060               	UART_Print_Debug_Data:
 1061               	.LFB27:
 1062               	.LM154:
 1063               	.LVL81:
 1064 0440 EF92      		push r14
 1065 0442 FF92      		push r15
 1066 0444 0F93      		push r16
 1067 0446 1F93      		push r17
 1068 0448 CF93      		push r28
 1069 044a DF93      		push r29
 1070               	/* prologue: function */
 1071               	/* frame size = 0 */
 1072 044c 7C01      		movw r14,r24
 1073               	.LM155:
 1074 044e 8C01      		movw r16,r24
 1075 0450 C1E0      		ldi r28,lo8(1)
 1076 0452 D0E0      		ldi r29,hi8(1)
 1077               	.LVL82:
 1078 0454 00C0      		rjmp .L115
 1079               	.LVL83:
 1080               	.L116:
 1081               	.LBB106:
 1082               	.LM156:
 1083 0456 F801      		movw r30,r16
 1084 0458 6081      		ld r22,Z
 1085 045a 7181      		ldd r23,Z+1
 1086 045c 8827      		clr r24
 1087 045e 77FD      		sbrc r23,7
 1088 0460 8095      		com r24
 1089 0462 982F      		mov r25,r24
 1090 0464 44E0      		ldi r20,lo8(4)
 1091 0466 0E94 0000 		call UART_Transmit_Fixed_Digit_Number
 1092               	.LM157:
 1093 046a 80E0      		ldi r24,lo8(.LC0)
 1094 046c 90E0      		ldi r25,hi8(.LC0)
 1095 046e 0E94 0000 		call UART_Transmit_Text
 1096               	.LM158:
 1097 0472 2196      		adiw r28,1
 1098               	.LVL84:
 1099               	.L115:
 1100 0474 0E5F      		subi r16,lo8(-(2))
 1101 0476 1F4F      		sbci r17,hi8(-(2))
 1102 0478 F701      		movw r30,r14
 1103 047a 8081      		ld r24,Z
 1104 047c 9181      		ldd r25,Z+1
 1105 047e 8C17      		cp r24,r28
 1106 0480 9D07      		cpc r25,r29
 1107 0482 04F4      		brge .L116
 1108               	/* epilogue start */
 1109               	.LBE106:
 1110               	.LM159:
 1111 0484 DF91      		pop r29
 1112 0486 CF91      		pop r28
 1113               	.LVL85:
 1114 0488 1F91      		pop r17
 1115 048a 0F91      		pop r16
 1116 048c FF90      		pop r15
 1117 048e EF90      		pop r14
 1118               	.LVL86:
 1119 0490 0895      		ret
 1120               	.LFE27:
 1122               	.global	UART_Read_From_Buffer
 1124               	UART_Read_From_Buffer:
 1125               	.LFB28:
 1126               	.LM160:
 1127               	.LVL87:
 1128               	/* prologue: function */
 1129               	/* frame size = 0 */
 1130               	.LM161:
 1131 0492 FC01      		movw r30,r24
 1132 0494 E050      		subi r30,lo8(-(UART))
 1133 0496 F040      		sbci r31,hi8(-(UART))
 1134 0498 8285      		ldd r24,Z+10
 1135               	.LVL88:
 1136               	/* epilogue start */
 1137               	.LM162:
 1138 049a 0895      		ret
 1139               	.LFE28:
 1141               	.global	UART_Current_Buffer_Index
 1143               	UART_Current_Buffer_Index:
 1144               	.LFB29:
 1145               	.LM163:
 1146               	/* prologue: function */
 1147               	/* frame size = 0 */
 1148               	.LM164:
 1149 049c 2091 0000 		lds r18,UART+44
 1150 04a0 3091 0000 		lds r19,(UART+44)+1
 1151               	.LM165:
 1152 04a4 C901      		movw r24,r18
 1153               	/* epilogue start */
 1154 04a6 0895      		ret
 1155               	.LFE29:
 1157               	.global	UART_Current_Read_Index
 1159               	UART_Current_Read_Index:
 1160               	.LFB30:
 1161               	.LM166:
 1162               	/* prologue: function */
 1163               	/* frame size = 0 */
 1164               	.LM167:
 1165 04a8 2091 0000 		lds r18,UART+48
 1166 04ac 3091 0000 		lds r19,(UART+48)+1
 1167               	.LM168:
 1168 04b0 C901      		movw r24,r18
 1169               	/* epilogue start */
 1170 04b2 0895      		ret
 1171               	.LFE30:
 1173               	.global	UART_Bytes_Available_To_Read
 1175               	UART_Bytes_Available_To_Read:
 1176               	.LFB31:
 1177               	.LM169:
 1178               	/* prologue: function */
 1179               	/* frame size = 0 */
 1180               	.LM170:
 1181 04b4 2091 0000 		lds r18,UART+46
 1182 04b8 3091 0000 		lds r19,(UART+46)+1
 1183               	.LM171:
 1184 04bc C901      		movw r24,r18
 1185               	/* epilogue start */
 1186 04be 0895      		ret
 1187               	.LFE31:
 1189               	.global	UART_Read
 1191               	UART_Read:
 1192               	.LFB32:
 1193               	.LM172:
 1194               	/* prologue: function */
 1195               	/* frame size = 0 */
 1196               	.LM173:
 1197 04c0 E091 0000 		lds r30,UART+48
 1198 04c4 F091 0000 		lds r31,(UART+48)+1
 1199 04c8 E050      		subi r30,lo8(-(UART))
 1200 04ca F040      		sbci r31,hi8(-(UART))
 1201 04cc 4285      		ldd r20,Z+10
 1202               	.LVL89:
 1203               	.LM174:
 1204 04ce 8091 0000 		lds r24,UART+48
 1205 04d2 9091 0000 		lds r25,(UART+48)+1
 1206 04d6 0196      		adiw r24,1
 1207 04d8 9093 0000 		sts (UART+48)+1,r25
 1208 04dc 8093 0000 		sts UART+48,r24
 1209               	.LM175:
 1210 04e0 2091 0000 		lds r18,UART+48
 1211 04e4 3091 0000 		lds r19,(UART+48)+1
 1212 04e8 8091 0000 		lds r24,UART+42
 1213 04ec 9091 0000 		lds r25,(UART+42)+1
 1214 04f0 2817      		cp r18,r24
 1215 04f2 3907      		cpc r19,r25
 1216 04f4 00F0      		brlo .L127
 1217               	.LM176:
 1218 04f6 1092 0000 		sts (UART+48)+1,__zero_reg__
 1219 04fa 1092 0000 		sts UART+48,__zero_reg__
 1220               	.L127:
 1221               	.LM177:
 1222 04fe 8091 0000 		lds r24,UART+46
 1223 0502 9091 0000 		lds r25,(UART+46)+1
 1224 0506 892B      		or r24,r25
 1225 0508 01F0      		breq .L128
 1226               	.LM178:
 1227 050a 8091 0000 		lds r24,UART+46
 1228 050e 9091 0000 		lds r25,(UART+46)+1
 1229 0512 0197      		sbiw r24,1
 1230 0514 9093 0000 		sts (UART+46)+1,r25
 1231 0518 8093 0000 		sts UART+46,r24
 1232               	.L128:
 1233               	.LM179:
 1234 051c 842F      		mov r24,r20
 1235               	/* epilogue start */
 1236 051e 0895      		ret
 1237               	.LFE32:
 1239               	.global	UART_Last_Received_Byte
 1241               	UART_Last_Received_Byte:
 1242               	.LFB33:
 1243               	.LM180:
 1244               	/* prologue: function */
 1245               	/* frame size = 0 */
 1246               	.LBB107:
 1247               	.LBB108:
 1248               	.LM181:
 1249 0520 8091 0000 		lds r24,UART+44
 1250 0524 9091 0000 		lds r25,(UART+44)+1
 1251               	.LBE108:
 1252               	.LBE107:
 1253               	.LM182:
 1254 0528 892B      		or r24,r25
 1255 052a 01F4      		brne .L131
 1256               	.LM183:
 1257 052c E091 0000 		lds r30,UART+42
 1258 0530 F091 0000 		lds r31,(UART+42)+1
 1259               	.LBB109:
 1260               	.LBB110:
 1261               	.LM184:
 1262 0534 E050      		subi r30,lo8(-(UART-1))
 1263 0536 F040      		sbci r31,hi8(-(UART-1))
 1264 0538 8285      		ldd r24,Z+10
 1265 053a 0895      		ret
 1266               	.L131:
 1267               	.LBE110:
 1268               	.LBE109:
 1269               	.LBB111:
 1270               	.LBB112:
 1271               	.LM185:
 1272 053c E091 0000 		lds r30,UART+44
 1273 0540 F091 0000 		lds r31,(UART+44)+1
 1274               	.LBE112:
 1275               	.LBE111:
 1276               	.LBB113:
 1277               	.LBB114:
 1278               	.LM186:
 1279 0544 E050      		subi r30,lo8(-(UART-1))
 1280 0546 F040      		sbci r31,hi8(-(UART-1))
 1281 0548 8285      		ldd r24,Z+10
 1282               	.LBE114:
 1283               	.LBE113:
 1284               	.LM187:
 1285 054a 0895      		ret
 1286               	.LFE33:
 1288               	.global	UART_Flush_Buffer
 1290               	UART_Flush_Buffer:
 1291               	.LFB34:
 1292               	.LM188:
 1293               	/* prologue: function */
 1294               	/* frame size = 0 */
 1295               	.LM189:
 1296 054c 1092 0000 		sts UART,__zero_reg__
 1297 0550 20E0      		ldi r18,lo8(0)
 1298 0552 30E0      		ldi r19,hi8(0)
 1299               	.LVL90:
 1300 0554 00C0      		rjmp .L135
 1301               	.L136:
 1302               	.LBB115:
 1303               	.LM190:
 1304 0556 F901      		movw r30,r18
 1305 0558 E050      		subi r30,lo8(-(UART))
 1306 055a F040      		sbci r31,hi8(-(UART))
 1307 055c 1286      		std Z+10,__zero_reg__
 1308               	.LM191:
 1309 055e 2F5F      		subi r18,lo8(-(1))
 1310 0560 3F4F      		sbci r19,hi8(-(1))
 1311               	.L135:
 1312 0562 8091 0000 		lds r24,UART+42
 1313 0566 9091 0000 		lds r25,(UART+42)+1
 1314 056a 2817      		cp r18,r24
 1315 056c 3907      		cpc r19,r25
 1316 056e 00F0      		brlo .L136
 1317               	.LBE115:
 1318               	.LM192:
 1319 0570 1092 0000 		sts (UART+44)+1,__zero_reg__
 1320 0574 1092 0000 		sts UART+44,__zero_reg__
 1321               	.LM193:
 1322 0578 1092 0000 		sts (UART+48)+1,__zero_reg__
 1323 057c 1092 0000 		sts UART+48,__zero_reg__
 1324               	.LM194:
 1325 0580 1092 0000 		sts (UART+46)+1,__zero_reg__
 1326 0584 1092 0000 		sts UART+46,__zero_reg__
 1327               	/* epilogue start */
 1328               	.LM195:
 1329 0588 0895      		ret
 1330               	.LFE34:
 1332               	.global	UART_Interrupt_Service_Routine
 1334               	UART_Interrupt_Service_Routine:
 1335               	.LFB35:
 1336               	.LM196:
 1337 058a DF93      		push r29
 1338 058c CF93      		push r28
 1339 058e 0F92      		push __tmp_reg__
 1340 0590 CDB7      		in r28,__SP_L__
 1341 0592 DEB7      		in r29,__SP_H__
 1342               	/* prologue: function */
 1343               	/* frame size = 1 */
 1344               	.LM197:
 1345 0594 1982      		std Y+1,__zero_reg__
 1346               	.LVL91:
 1347               	.LM198:
 1348 0596 0E94 0000 		call UART_Receive_Byte
 1349 059a 8983      		std Y+1,r24
 1350               	.LM199:
 1351 059c 8091 0000 		lds r24,UART
 1352 05a0 8823      		tst r24
 1353 05a2 01F0      		breq .+2
 1354 05a4 00C0      		rjmp .L141
 1355               	.LM200:
 1356 05a6 E091 0000 		lds r30,UART+44
 1357 05aa F091 0000 		lds r31,(UART+44)+1
 1358 05ae 8981      		ldd r24,Y+1
 1359 05b0 E050      		subi r30,lo8(-(UART))
 1360 05b2 F040      		sbci r31,hi8(-(UART))
 1361 05b4 8287      		std Z+10,r24
 1362               	.LM201:
 1363 05b6 8091 0000 		lds r24,UART+44
 1364 05ba 9091 0000 		lds r25,(UART+44)+1
 1365 05be 0196      		adiw r24,1
 1366 05c0 9093 0000 		sts (UART+44)+1,r25
 1367 05c4 8093 0000 		sts UART+44,r24
 1368               	.LM202:
 1369 05c8 2091 0000 		lds r18,UART+44
 1370 05cc 3091 0000 		lds r19,(UART+44)+1
 1371 05d0 8091 0000 		lds r24,UART+42
 1372 05d4 9091 0000 		lds r25,(UART+42)+1
 1373 05d8 2817      		cp r18,r24
 1374 05da 3907      		cpc r19,r25
 1375 05dc 00F0      		brlo .L140
 1376               	.LM203:
 1377 05de 1092 0000 		sts (UART+44)+1,__zero_reg__
 1378 05e2 1092 0000 		sts UART+44,__zero_reg__
 1379               	.L140:
 1380               	.LM204:
 1381 05e6 8091 0000 		lds r24,UART+46
 1382 05ea 9091 0000 		lds r25,(UART+46)+1
 1383 05ee 0196      		adiw r24,1
 1384 05f0 9093 0000 		sts (UART+46)+1,r25
 1385 05f4 8093 0000 		sts UART+46,r24
 1386               	.LM205:
 1387 05f8 2091 0000 		lds r18,UART+46
 1388 05fc 3091 0000 		lds r19,(UART+46)+1
 1389 0600 8091 0000 		lds r24,UART+42
 1390 0604 9091 0000 		lds r25,(UART+42)+1
 1391 0608 8217      		cp r24,r18
 1392 060a 9307      		cpc r25,r19
 1393 060c 00F4      		brsh .L141
 1394               	.LM206:
 1395 060e 8091 0000 		lds r24,UART+42
 1396 0612 9091 0000 		lds r25,(UART+42)+1
 1397 0616 9093 0000 		sts (UART+46)+1,r25
 1398 061a 8093 0000 		sts UART+46,r24
 1399               	.LM207:
 1400 061e 8091 0000 		lds r24,UART+48
 1401 0622 9091 0000 		lds r25,(UART+48)+1
 1402 0626 0196      		adiw r24,1
 1403 0628 9093 0000 		sts (UART+48)+1,r25
 1404 062c 8093 0000 		sts UART+48,r24
 1405               	.LM208:
 1406 0630 2091 0000 		lds r18,UART+48
 1407 0634 3091 0000 		lds r19,(UART+48)+1
 1408 0638 8091 0000 		lds r24,UART+42
 1409 063c 9091 0000 		lds r25,(UART+42)+1
 1410 0640 2817      		cp r18,r24
 1411 0642 3907      		cpc r19,r25
 1412 0644 00F0      		brlo .L141
 1413               	.LM209:
 1414 0646 1092 0000 		sts (UART+48)+1,__zero_reg__
 1415 064a 1092 0000 		sts UART+48,__zero_reg__
 1416               	.L141:
 1417               	/* epilogue start */
 1418               	.LM210:
 1419 064e 0F90      		pop __tmp_reg__
 1420 0650 CF91      		pop r28
 1421 0652 DF91      		pop r29
 1422 0654 0895      		ret
 1423               	.LFE35:
 1425               	.global	UART_Init
 1427               	UART_Init:
 1428               	.LFB36:
 1429               	.LM211:
 1430               	.LVL92:
 1431 0656 EF92      		push r14
 1432 0658 FF92      		push r15
 1433 065a 0F93      		push r16
 1434 065c 1F93      		push r17
 1435               	/* prologue: function */
 1436               	/* frame size = 0 */
 1437 065e 7B01      		movw r14,r22
 1438 0660 8C01      		movw r16,r24
 1439               	.LM212:
 1440 0662 0E94 0000 		call UART_Struct_Init
 1441               	.LVL93:
 1442               	.LM213:
 1443 0666 C801      		movw r24,r16
 1444 0668 B701      		movw r22,r14
 1445 066a 0E94 0000 		call UART_Config_BAUD_Rate
 1446               	.LBB116:
 1447               	.LBB117:
 1448               	.LM214:
 1449 066e E1EC      		ldi r30,lo8(193)
 1450 0670 F0E0      		ldi r31,hi8(193)
 1451 0672 8081      		ld r24,Z
 1452 0674 8860      		ori r24,lo8(8)
 1453 0676 8083      		st Z,r24
 1454               	.LM215:
 1455 0678 A2EC      		ldi r26,lo8(194)
 1456 067a B0E0      		ldi r27,hi8(194)
 1457 067c 96E0      		ldi r25,lo8(6)
 1458 067e 9C93      		st X,r25
 1459               	.LBE117:
 1460               	.LBE116:
 1461               	.LBB118:
 1462               	.LBB119:
 1463               	.LM216:
 1464 0680 8081      		ld r24,Z
 1465 0682 8061      		ori r24,lo8(16)
 1466 0684 8083      		st Z,r24
 1467               	.LM217:
 1468 0686 9C93      		st X,r25
 1469               	.LBE119:
 1470               	.LBE118:
 1471               	.LBB120:
 1472               	.LBB121:
 1473               	.LM218:
 1474 0688 8081      		ld r24,Z
 1475 068a 8068      		ori r24,lo8(-128)
 1476 068c 8083      		st Z,r24
 1477               	.LM219:
 1478               	/* #APP */
 1479               	 ;  86 "uart.c" 1
 1480 068e 7894      		sei
 1481               	 ;  0 "" 2
 1482               	/* epilogue start */
 1483               	/* #NOAPP */
 1484               	.LBE121:
 1485               	.LBE120:
 1486               	.LM220:
 1487 0690 1F91      		pop r17
 1488 0692 0F91      		pop r16
 1489 0694 FF90      		pop r15
 1490 0696 EF90      		pop r14
 1491               	.LVL94:
 1492 0698 0895      		ret
 1493               	.LFE36:
 1495               	.global	__vector_18
 1497               	__vector_18:
 1498               	.LFB37:
 1499               	.LM221:
 1500 069a 1F92      		push __zero_reg__
 1501 069c 0F92      		push r0
 1502 069e 0FB6      		in r0,__SREG__
 1503 06a0 0F92      		push r0
 1504 06a2 1124      		clr __zero_reg__
 1505 06a4 2F93      		push r18
 1506 06a6 3F93      		push r19
 1507 06a8 4F93      		push r20
 1508 06aa 5F93      		push r21
 1509 06ac 6F93      		push r22
 1510 06ae 7F93      		push r23
 1511 06b0 8F93      		push r24
 1512 06b2 9F93      		push r25
 1513 06b4 AF93      		push r26
 1514 06b6 BF93      		push r27
 1515 06b8 EF93      		push r30
 1516 06ba FF93      		push r31
 1517               	/* prologue: Signal */
 1518               	/* frame size = 0 */
 1519               	.LM222:
 1520 06bc 0E94 0000 		call UART_Interrupt_Service_Routine
 1521               	/* epilogue start */
 1522               	.LM223:
 1523 06c0 FF91      		pop r31
 1524 06c2 EF91      		pop r30
 1525 06c4 BF91      		pop r27
 1526 06c6 AF91      		pop r26
 1527 06c8 9F91      		pop r25
 1528 06ca 8F91      		pop r24
 1529 06cc 7F91      		pop r23
 1530 06ce 6F91      		pop r22
 1531 06d0 5F91      		pop r21
 1532 06d2 4F91      		pop r20
 1533 06d4 3F91      		pop r19
 1534 06d6 2F91      		pop r18
 1535 06d8 0F90      		pop r0
 1536 06da 0FBE      		out __SREG__,r0
 1537 06dc 0F90      		pop r0
 1538 06de 1F90      		pop __zero_reg__
 1539 06e0 1895      		reti
 1540               	.LFE37:
 1542               		.lcomm UART,50
 1815               	.Letext0:
DEFINED SYMBOLS
                            *ABS*:00000000 uart.c
C:\Users\WALTON\AppData\Local\Temp/ccKDn4AV.s:2      *ABS*:0000003f __SREG__
C:\Users\WALTON\AppData\Local\Temp/ccKDn4AV.s:3      *ABS*:0000003e __SP_H__
C:\Users\WALTON\AppData\Local\Temp/ccKDn4AV.s:4      *ABS*:0000003d __SP_L__
C:\Users\WALTON\AppData\Local\Temp/ccKDn4AV.s:5      *ABS*:00000034 __CCP__
C:\Users\WALTON\AppData\Local\Temp/ccKDn4AV.s:6      *ABS*:00000000 __tmp_reg__
C:\Users\WALTON\AppData\Local\Temp/ccKDn4AV.s:7      *ABS*:00000001 __zero_reg__
C:\Users\WALTON\AppData\Local\Temp/ccKDn4AV.s:18     .text:00000000 UART_Config_GPIO
C:\Users\WALTON\AppData\Local\Temp/ccKDn4AV.s:30     .text:00000002 UART_Config_Clock
C:\Users\WALTON\AppData\Local\Temp/ccKDn4AV.s:42     .text:00000004 UART_Config_BAUD_Rate
C:\Users\WALTON\AppData\Local\Temp/ccKDn4AV.s:84     .text:00000038 UART_Config_Transmitter
C:\Users\WALTON\AppData\Local\Temp/ccKDn4AV.s:105    .text:0000004a UART_Config_Receiver
C:\Users\WALTON\AppData\Local\Temp/ccKDn4AV.s:126    .text:0000005c UART_Config_Receiver_Interrupt
C:\Users\WALTON\AppData\Local\Temp/ccKDn4AV.s:150    .text:0000006a UART_Transmit_Byte
C:\Users\WALTON\AppData\Local\Temp/ccKDn4AV.s:172    .text:0000007a UART_Receive_Byte
                             .bss:00000000 UART
C:\Users\WALTON\AppData\Local\Temp/ccKDn4AV.s:233    .text:000000c2 UART_Struct_Init
C:\Users\WALTON\AppData\Local\Temp/ccKDn4AV.s:299    .text:00000112 UART_Transmit_Byte_Hex
C:\Users\WALTON\AppData\Local\Temp/ccKDn4AV.s:450    .text:000001c4 UART_Transmit_Byte_Bin
C:\Users\WALTON\AppData\Local\Temp/ccKDn4AV.s:605    .text:00000284 UART_Transmit_New_Line
C:\Users\WALTON\AppData\Local\Temp/ccKDn4AV.s:641    .text:000002a2 UART_Transmit_Space
C:\Users\WALTON\AppData\Local\Temp/ccKDn4AV.s:665    .text:000002b2 UART_Transmit_Text
C:\Users\WALTON\AppData\Local\Temp/ccKDn4AV.s:706    .text:000002d4 UART_Transmit_Text_NL
C:\Users\WALTON\AppData\Local\Temp/ccKDn4AV.s:724    .text:000002de UART_Determine_Digit_Numbers
C:\Users\WALTON\AppData\Local\Temp/ccKDn4AV.s:814    .text:0000035c UART_Transmit_Number_Digits
C:\Users\WALTON\AppData\Local\Temp/ccKDn4AV.s:870    .text:00000386 UART_Transmit_Number
C:\Users\WALTON\AppData\Local\Temp/ccKDn4AV.s:917    .text:000003b8 UART_Transmit_Number_NL
C:\Users\WALTON\AppData\Local\Temp/ccKDn4AV.s:935    .text:000003c2 UART_Transmit_Number_SP
C:\Users\WALTON\AppData\Local\Temp/ccKDn4AV.s:967    .text:000003d6 UART_Transmit_Fixed_Digit_Number
C:\Users\WALTON\AppData\Local\Temp/ccKDn4AV.s:1060   .text:00000440 UART_Print_Debug_Data
C:\Users\WALTON\AppData\Local\Temp/ccKDn4AV.s:1124   .text:00000492 UART_Read_From_Buffer
C:\Users\WALTON\AppData\Local\Temp/ccKDn4AV.s:1143   .text:0000049c UART_Current_Buffer_Index
C:\Users\WALTON\AppData\Local\Temp/ccKDn4AV.s:1159   .text:000004a8 UART_Current_Read_Index
C:\Users\WALTON\AppData\Local\Temp/ccKDn4AV.s:1175   .text:000004b4 UART_Bytes_Available_To_Read
C:\Users\WALTON\AppData\Local\Temp/ccKDn4AV.s:1191   .text:000004c0 UART_Read
C:\Users\WALTON\AppData\Local\Temp/ccKDn4AV.s:1241   .text:00000520 UART_Last_Received_Byte
C:\Users\WALTON\AppData\Local\Temp/ccKDn4AV.s:1290   .text:0000054c UART_Flush_Buffer
C:\Users\WALTON\AppData\Local\Temp/ccKDn4AV.s:1334   .text:0000058a UART_Interrupt_Service_Routine
C:\Users\WALTON\AppData\Local\Temp/ccKDn4AV.s:1427   .text:00000656 UART_Init
C:\Users\WALTON\AppData\Local\Temp/ccKDn4AV.s:1497   .text:0000069a __vector_18

UNDEFINED SYMBOLS
__udivmodsi4
__do_copy_data
__do_clear_bss
